(dp1
S'output'
p2
S"<type 'exceptions.AttributeError'> 'NoneType' object has no attribute 'title'"
p3
sS'layer'
p4
S'C:\\Users\\Matthew\\Desktop\\web2py\\applications\\Beautfix\\controllers/default.py'
p5
sS'code'
p6
S'# -*- coding: utf-8 -*-\n# this file is released under public domain and you can use without limitations\nimport math\nimport logging\n\nCATEGORY = [\'Makeup\', \'SkinCare\', \'Fragrance\', \'Bath&Body\', \'Nails\', \'Hair\', \'Tools&Brushes\', \'Men\', \'Other\']\n\ndef view():\n    """View a post."""\n    # p = db(db.bboard.id == request.args(0)).select().first()\n    #p = db.post(request.args(0))\n    #form = SQLFORM(db.post, record=p, readonly=True)\n    row_id = request.args(0)\n    title = db.forum[row_id].title\n    body = db.forum[row_id].body\n    post = True if request.vars.post == \'y\' else False\n    backbutton = A(\'Back\', _class=\'btn\', _href=URL(\'default\', \'forums\'))\n    button = A(\'Post\', _class=\'btn\', _href=URL(\'default\', \'view\', args = [row_id], vars=dict(post=\'y\')))  \n    thread = db(db.forum.title == title).select().first()\n    thread_id = thread.id if thread is not None else None\n    if post:\n        backbutton = ""\n        button = ""\n        form = SQLFORM.factory(db.post)\n        form.add_button(\'Cancel\', URL(\'default\', \'view\', args = [row_id]))\n        if form.process().accepted:\n           if not auth.user:\n               session.flash = T("Please login first")\n               redirect(URL(\'default\', \'forums\'))\n           db.post.insert(body=form.vars.body, thread_id = thread_id)\n           redirect(URL(\'default\', \'view\', args = [row_id]))\n\n    else:\n        form = SQLFORM.grid(db.post.thread_id == thread_id, user_signature = False,\n                fields=[db.post.date_posted,db.post.body, db.post.author],\n                editable=False, deletable=False, details = False, create = False, searchable = False, csv = False, \n                paginate=50, orderby = db.post.date_posted,maxtextlength = 250)\n\n    # p.name would contain the name of the poster.\n    return dict(form=form, title=title, body=body, button=button, backbutton = backbutton)\n\n@auth.requires_login()\ndef addLike():\n    row_id = request.args(0)\n    title = db.forum[row_id].title\n    thread = db(db.forum.title == title).select().first()\n    thread.likes = int(thread.likes) + 1\n    thread.update_record()\n    redirect(URL(\'default\', \'forums\'))\n\ndef forums():\n    title = \'Forums\'\n    display_title = title.title()\n    editing = True if request.vars.edit == \'y\' else False\n    button = A(\'+ Thread\', _class=\'btn\', _href=URL(\'default\', \'forums\', vars=dict(edit=\'y\')))\n    def generate_goto_button(row):\n        b = A(\'Go to\', _class=\'btn\', _href=URL(\'default\', \'view\', args=[row.id]))\n        return b\n    def generate_like_button(row):\n        b = A(\'^\', _class=\'btn\', _href=URL(\'default\', \'addLike\', args=[row.id]))\n        return b\n    \n    if editing:\n        button = ""\n        form = SQLFORM.factory(db.forum)\n        form.add_button(\'Cancel\', URL(\'default\', \'forums\'))\n        if form.process().accepted:\n           if not auth.user:\n               session.flash = T("Please login first")\n               redirect(URL(\'default\', \'forums\'))\n           db.forum.insert(body=form.vars.body, title=form.vars.title, category=form.vars.category)\n           redirect(URL(\'default\', \'forums\'))\n\n    else:\n        links=[dict(header=\'\', body = generate_like_button), dict(header=\'\', body = generate_goto_button)]\n\n        form = SQLFORM.grid(db.forum, user_signature = False,\n                fields=[db.forum.title, db.forum.category, db.forum.date_posted, db.forum.author, db.forum.likes],\n                editable=False, deletable=False, details = False, create = False, searchable = False, csv = False, \n                paginate=50, orderby =~ db.forum.date_posted,maxtextlength = 50, links=links)\n\n    return dict(display_title=display_title, form=form, addThread = button)\n\n\ndef writeAreview():\n    category = request.args(0)\n    subCategory = request.args(1) if request.args(1) is not None else None\n    redirect(URL(\'default\', \'index\', args = [category, subCategory], vars=dict(posting=\'y\')))\n\ndef reviews():\n    title = \'Write a Review\'\n    display_title = title.title()\n\n    select = SQLFORM.widgets.options.widget(db.forum.category, db.forum.category.default)\n    \n    subselect2 = SQLFORM.widgets.options.widget(db.makeup.category, db.makeup.category.default)\n    subselect3 = SQLFORM.widgets.options.widget(db.skinCare.category, db.skinCare.category.default)\n    subselect4 = SQLFORM.widgets.options.widget(db.bathBody.category, db.bathBody.category.default)\n    subselect5 = SQLFORM.widgets.options.widget(db.hair.category, db.hair.category.default)\n    subselect6 = SQLFORM.widgets.options.widget(db.toolsBrushes.category, db.toolsBrushes.category.default)\n    subselect7= SQLFORM.widgets.options.widget(db.men.category, db.men.category.default)\n\n    return dict(display_title=display_title,select=select, subselect2=subselect2, subselect3=subselect3, subselect4=subselect4, subselect5=subselect5, subselect6=subselect6, subselect7=subselect7)\n\n@auth.requires_login()\ndef account():\n    title = \'Account\'\n    display_title = title.title()\n    form = auth.profile()\n    return dict(display_title=display_title,form=form)\n\n\n\ndef viewProduct():\n    category = request.args(0) if request.args(0) is not None else None\n    subCategory = request.args(1) if request.args(1) is not None else None\n    product_id = request.args(2) if request.args(2) is not None else None\n    product_rating = request.args(3) if request.args(3) is not None else None\n\n    if category == "makeup":\n       display_title2 = "MAKEUP"\n       displayDB = db.makeup\n\n    if category == "skinCare":\n        display_title2 = "SKINCARE"\n        displayDB = db.skinCare\n\n    if category == "bathBody":\n        display_title2 = "BATH AND BODY"\n        displayDB = db.bathBody\n\n    if category == "hair":\n        display_title2 = "HAIR"\n        displayDB = db.hair\n\n    if category == "toolsBrushes":\n        display_title2 = "TOOLS AND BRUSHES"\n        displayDB = db.toolsBrushes\n\n    if category == "men":\n        display_title2 = "MEN"\n        displayDB = db.men\n\n    product_selected = db(displayDB.id == product_id).select().first()\n    product_title = product_selected.product\n    product_id = product_selected.id\n    product_price = product_selected.price_range\n\n    def picture(x):\n        return{\n            1.0 : A(IMG(_src="http://i.imgur.com/vBphvSK.png?1")),\n            2.0 : A(IMG(_src="http://i.imgur.com/hX0Su5L.png?1")),\n            3.0 : A(IMG(_src="http://i.imgur.com/OiNpTYg.png?1")),\n            4.0 : A(IMG(_src="http://i.imgur.com/7TicHMP.png?1")),\n            5.0 : A(IMG(_src="http://i.imgur.com/qpaKKaw.png?2"))\n        }[x]\n\n    def money(x):\n        return{\n            1.0 : A(IMG(_src="http://i.imgur.com/jYA0anS.png?1")),\n            2.0 : A(IMG(_src="http://i.imgur.com/6kDHxEd.png?1")),\n            3.0 : A(IMG(_src="http://i.imgur.com/cLhLFIx.png?1")),\n            4.0 : A(IMG(_src="http://i.imgur.com/pycceWR.png?1")),\n            5.0 : A(IMG(_src="http://i.imgur.com/QQHqsaw.png"))\n        }[x]\n\n    product_rating = picture(float(product_rating))\n    product_price = money(float(product_price))\n    product_image = product_selected.image\n    product_image = A(IMG(_src=product_image))\n\n    query = (db.comments.product_id==product_id) & (db.comments.category==category)\n    form = SQLFORM.grid(query, user_signature = False,\n                          fields=[db.comments.reviews, db.comments.author],\n                          editable=False, deletable=False, details = False, create = False,\n                          searchable = False, csv = False,\n                          paginate=50, maxtextlength=100)\n\n    backbutton = A(\'Back\', _class=\'btn\', _href=URL(\'default\', \'index\', args=[category, subCategory]))\n    postbutton = A(\'Write a Review\', _class=\'btn\', _href=URL(\'default\', \'index\', args=[category, subCategory, product_title], vars=dict(posting=\'y\')))\n\n    return dict(display_title=product_title, form=form, backbutton=backbutton, postbutton=postbutton,\n                product_rating=product_rating, product_price=product_price, product_image=product_image)\n\n\ndef index():\n    title = \'BeautFix\'\n    display_title = title.title()\n    display_title2 = ""\n    requiredCategory = ""\n\n    category = request.args(0) if request.args(0) is not None else None\n    subCategory = request.args(1) if request.args(1) is not None else None\n    product_title = request.args(2) if request.args(2) is not None else None\n\n    posting = True if request.vars.posting == \'y\' else False\n    if subCategory is not None:\n        button = A(\'Post\', _class=\'btn\', _href=URL(\'default\', \'index\', args = [category, subCategory], vars=dict(posting=\'y\'))) if category is not None else ""\n    else:\n        button = A(\'Post\', _class=\'btn\', _href=URL(\'default\', \'index\', args = [category], vars=dict(posting=\'y\'))) if category is not None else ""\n    form = ""\n\n    if category == "makeup":\n       display_title2 = "MAKEUP"\n       displayDB = db.makeup\n       requiredCategory = MAKEUP_CATEGORY\n\n    if category == "skinCare":\n        display_title2 = "SKINCARE"\n        displayDB = db.skinCare\n        requiredCategory = SKIN_CATEGORY\n\n    if category == "bathBody":\n        display_title2 = "BATH AND BODY"\n        displayDB = db.bathBody\n        requiredCategory = BATHBODY_CATEGORY\n\n    if category == "hair":\n        display_title2 = "HAIR"\n        displayDB = db.hair\n        requiredCategory = HAIR_CATEGORY\n\n    if category == "toolsBrushes":\n        display_title2 = "TOOLS AND BRUSHES"\n        displayDB = db.toolsBrushes\n        requiredCategory = TOOLSBRUSHES_CATEGORY\n\n    if category == "men":\n        display_title2 = "MEN"\n        displayDB = db.men\n        requiredCategory = MEN_CATEGORY\n\n    if posting:\n        if not auth.user:\n            session.flash = T("Please login first")\n            redirect(URL(\'default\', \'index\', args = [category]))\n        button = ""\n        if product_title is not None:\n            form = SQLFORM.factory(\n                Field(\'product\', default=product_title, writable = False),\n                Field(\'category\', default=subCategory, writable=False),\n                Field(\'price_range\', requires = IS_IN_SET(PRICE_RANGE, error_message = \'Choose price range\')),\n                Field(\'rating\', requires = IS_IN_SET(RATING, error_message = \'Choose a Rating\')),\n                Field(\'body\', \'text\'),\n                Field(\'image\'),\n            )\n        else:\n            if subCategory is not None:\n                form = SQLFORM.factory(\n                    Field(\'product\', required = True),\n                    Field(\'category\', default=subCategory, writable=False),\n                    Field(\'price_range\', requires = IS_IN_SET(PRICE_RANGE, error_message = \'Choose price range\')),\n                    Field(\'rating\', requires = IS_IN_SET(RATING, error_message = \'Choose a Rating\')),\n                    Field(\'body\', \'text\'),\n                    Field(\'image\')\n                )\n            else:\n               form = SQLFORM.factory(\n                    Field(\'product\', required = True),\n                    Field(\'category\', requires = IS_IN_SET(requiredCategory, error_message = \'Field Required\')),\n                    Field(\'price_range\', requires = IS_IN_SET(PRICE_RANGE, error_message = \'Choose price range\')),\n                    Field(\'rating\', requires = IS_IN_SET(RATING, error_message = \'Choose a Rating\')),\n                    Field(\'body\', \'text\'),\n                    Field(\'image\'),\n                )\n\n        form.add_button(\'Cancel\', URL(\'default\', \'index\', args = [category]))\n        if form.process().accepted:\n            product_id = ""\n            product_title = form.vars.product.title() if form.vars.product is not None else product_title\n            if db(displayDB.product == product_title).select().first() is not None:\n                existingProduct = db(displayDB.product == product_title).select().first()\n                existingProduct.reviewCount += 1\n                count = existingProduct.reviewCount + 1\n                newRating = math.ceil((existingProduct.totalRating + float(form.vars.rating))/count)\n                existingProduct.totalRating += float(form.vars.rating)\n                existingProduct.rating = newRating\n\n                newPrice = math.ceil((existingProduct.total_price_range + float(form.vars.price_range))/count)\n                existingProduct.total_price_range += float(form.vars.price_range)\n                existingProduct.price_range = newPrice\n                existingProduct.update_record()\n                product_id = existingProduct.id\n\n            else:\n                if subCategory is not None:\n                    product_id = displayDB.insert(body=form.vars.body, category=subCategory, price_range = form.vars.price_range,\n                         total_price_range = form.vars.price_range, rating = form.vars.rating, totalRating = form.vars.rating,\n                         image = form.vars.image, product = form.vars.product.title())\n                else:\n                    product_id = displayDB.insert(body=form.vars.body, category=form.vars.category, price_range = form.vars.price_range,\n                         total_price_range = form.vars.price_range, rating = form.vars.rating, totalRating = form.vars.rating,\n                         image = form.vars.image, product = form.vars.product.title())\n            db.comments.insert(product_id=product_id, category=category, reviews=form.vars.body)\n            redirect(URL(\'default\', \'index\' , args = [category]))\n\n    else:\n        def generate_view_button(row):\n            b = A(\'View\', _class=\'btn\', _href=URL(\'default\', \'viewProduct\',\n                                                  args=[category, row.category, row.id, row.rating]))\n            return b\n\n        links = [\n             dict(header=\'\', body = generate_view_button),\n        ]\n        if subCategory is not None:\n            display_title2 = display_title2 + \' - \' + subCategory.title()\n            form = SQLFORM.grid(displayDB.category == subCategory, user_signature = False,\n                          fields=[displayDB.product, displayDB.category, displayDB.date_posted,\n                                  displayDB.rating, displayDB.price_range],\n                          editable=False, deletable=False, details = False, create = False,\n                          searchable = False, csv = False, \n                          paginate=50, orderby =~displayDB.date_posted, maxtextlength=100,\n                          links=links)\n        else:\n            if category is not None:\n                form = SQLFORM.grid(displayDB, user_signature = False,\n                          fields=[displayDB.product, displayDB.category, displayDB.date_posted,\n                                  displayDB.rating, displayDB.price_range],\n                          editable=False, deletable=False, details = False, create = False,\n                          searchable = False, csv = False, \n                          paginate=50, orderby =~displayDB.date_posted, maxtextlength=100,\n                          links=links)\n            else:\n                form = ""\n\n    return dict(display_title=display_title, display_title2=display_title2, form = form, button = button)\n\ndef user():\n    """\n    exposes:\n    http://..../[app]/default/user/login\n    http://..../[app]/default/user/logout\n    http://..../[app]/default/user/register\n    http://..../[app]/default/user/profile\n    http://..../[app]/default/user/retrieve_password\n    http://..../[app]/default/user/change_password\n    http://..../[app]/default/user/manage_users (requires membership in\n    use @auth.requires_login()\n        @auth.requires_membership(\'group name\')\n        @auth.requires_permission(\'read\',\'table name\',record_id)\n    to decorate functions that need access control\n    """\n    return dict(form=auth())\n\n\n@cache.action()\ndef download():\n    """\n    allows downloading of uploaded files\n    http://..../[app]/default/download/[filename]\n    """\n    return response.download(request, db)\n\n\ndef call():\n    """\n    exposes services. for example:\n    http://..../[app]/default/call/jsonrpc\n    decorate with @services.jsonrpc the functions to expose\n    supports xml, json, xmlrpc, jsonrpc, amfrpc, rss, csv\n    """\n    return service()\n\n\n@auth.requires_login() \ndef api():\n    """\n    this is example of API with access control\n    WEB2PY provides Hypermedia API (Collection+JSON) Experimental\n    """\n    from gluon.contrib.hypermedia import Collection\n    rules = {\n        \'<tablename>\': {\'GET\':{},\'POST\':{},\'PUT\':{},\'DELETE\':{}},\n        }\n    return Collection(db).process(request,response,rules)\n\nresponse._vars=response._caller(index)\n'
p7
sS'snapshot'
p8
(dp9
S'exception'
p10
(dp11
S'__hash__'
p12
S"<method-wrapper '__hash__' of exceptions.AttributeError object>"
p13
sS'__setattr__'
p14
S"<method-wrapper '__setattr__' of exceptions.AttributeError object>"
p15
sS'__reduce_ex__'
p16
S'<built-in method __reduce_ex__ of exceptions.AttributeError object>'
p17
sS'__getslice__'
p18
S"<method-wrapper '__getslice__' of exceptions.AttributeError object>"
p19
sS'__getitem__'
p20
S"<method-wrapper '__getitem__' of exceptions.AttributeError object>"
p21
sS'__setstate__'
p22
S'<built-in method __setstate__ of exceptions.AttributeError object>'
p23
sS'__reduce__'
p24
S'<built-in method __reduce__ of exceptions.AttributeError object>'
p25
sS'__str__'
p26
S"<method-wrapper '__str__' of exceptions.AttributeError object>"
p27
sS'__format__'
p28
S'<built-in method __format__ of exceptions.AttributeError object>'
p29
sS'__getattribute__'
p30
S"<method-wrapper '__getattribute__' of exceptions.AttributeError object>"
p31
sS'__class__'
p32
S"<type 'exceptions.AttributeError'>"
p33
sS'__unicode__'
p34
S'<built-in method __unicode__ of exceptions.AttributeError object>'
p35
sS'__delattr__'
p36
S"<method-wrapper '__delattr__' of exceptions.AttributeError object>"
p37
sS'__subclasshook__'
p38
S'<built-in method __subclasshook__ of type object>'
p39
sS'__repr__'
p40
S"<method-wrapper '__repr__' of exceptions.AttributeError object>"
p41
sS'args'
p42
S'("\'NoneType\' object has no attribute \'title\'",)'
p43
sS'__dict__'
p44
S'{}'
p45
sS'__sizeof__'
p46
S'<built-in method __sizeof__ of exceptions.AttributeError object>'
p47
sS'__doc__'
p48
S"'Attribute not found.'"
p49
sS'__init__'
p50
S"<method-wrapper '__init__' of exceptions.AttributeError object>"
p51
sS'__new__'
p52
S'<built-in method __new__ of type object>'
p53
ssS'evalue'
p54
S"'NoneType' object has no attribute 'title'"
p55
sS'request'
p56
cgluon.html
XML_unpickle
p57
(S's\x9fj\x00\x00<div><table><tr><td style="font-weight:bold;vertical-align:top;">ajax</td><td style="vertical-align:top;">:</td><td><div>False</div></td></tr><tr><td style="font-weight:bold;vertical-align:top;">application</td><td style="vertical-align:top;">:</td><td><div>Beautfix</div></td></tr><tr><td style="font-weight:bold;vertical-align:top;">args</td><td style="vertical-align:top;">:</td><td><div><table><tr><td><div>makeup</div></td></tr><tr><td><div>Nails</div></td></tr><tr><td><div>L_Oreal_Colour_Riche_Nail_Femme_Fatale_Collection</div></td></tr></table></div></td></tr><tr><td style="font-weight:bold;vertical-align:top;">cid</td><td style="vertical-align:top;">:</td><td><div>None</div></td></tr><tr><td style="font-weight:bold;vertical-align:top;">client</td><td style="vertical-align:top;">:</td><td><div>127.0.0.1</div></td></tr><tr><td style="font-weight:bold;vertical-align:top;">controller</td><td style="vertical-align:top;">:</td><td><div>default</div></td></tr><tr><td style="font-weight:bold;vertical-align:top;">cookies</td><td style="vertical-align:top;">:</td><td><div><table><tr><td style="font-weight:bold;vertical-align:top;">session_id_admin</td><td style="vertical-align:top;">:</td><td><div>127.0.0.1-f0bc9352-d277-44fc-9030-39b878796882<table><tr><td style="font-weight:bold;vertical-align:top;">comment</td><td style="vertical-align:top;">:</td><td><div></div></td></tr><tr><td style="font-weight:bold;vertical-align:top;">domain</td><td style="vertical-align:top;">:</td><td><div></div></td></tr><tr><td style="font-weight:bold;vertical-align:top;">expires</td><td style="vertical-align:top;">:</td><td><div></div></td></tr><tr><td style="font-weight:bold;vertical-align:top;">httponly</td><td style="vertical-align:top;">:</td><td><div></div></td></tr><tr><td style="font-weight:bold;vertical-align:top;">max-age</td><td style="vertical-align:top;">:</td><td><div></div></td></tr><tr><td style="font-weight:bold;vertical-align:top;">path</td><td style="vertical-align:top;">:</td><td><div></div></td></tr><tr><td style="font-weight:bold;vertical-align:top;">secure</td><td style="vertical-align:top;">:</td><td><div></div></td></tr><tr><td style="font-weight:bold;vertical-align:top;">version</td><td style="vertical-align:top;">:</td><td><div></div></td></tr></table></div></td></tr><tr><td style="font-weight:bold;vertical-align:top;">session_id_beautfix</td><td style="vertical-align:top;">:</td><td><div>127.0.0.1-d250696f-6748-4682-bc30-c465f4135ed9<table><tr><td style="font-weight:bold;vertical-align:top;">comment</td><td style="vertical-align:top;">:</td><td><div></div></td></tr><tr><td style="font-weight:bold;vertical-align:top;">domain</td><td style="vertical-align:top;">:</td><td><div></div></td></tr><tr><td style="font-weight:bold;vertical-align:top;">expires</td><td style="vertical-align:top;">:</td><td><div></div></td></tr><tr><td style="font-weight:bold;vertical-align:top;">httponly</td><td style="vertical-align:top;">:</td><td><div></div></td></tr><tr><td style="font-weight:bold;vertical-align:top;">max-age</td><td style="vertical-align:top;">:</td><td><div></div></td></tr><tr><td style="font-weight:bold;vertical-align:top;">path</td><td style="vertical-align:top;">:</td><td><div></div></td></tr><tr><td style="font-weight:bold;vertical-align:top;">secure</td><td style="vertical-align:top;">:</td><td><div></div></td></tr><tr><td style="font-weight:bold;vertical-align:top;">version</td><td style="vertical-align:top;">:</td><td><div></div></td></tr></table></div></td></tr><tr><td style="font-weight:bold;vertical-align:top;">session_id_welcome</td><td style="vertical-align:top;">:</td><td><div>127.0.0.1-01d35e0e-c2a5-46f9-b3fc-14a845d9e0a8<table><tr><td style="font-weight:bold;vertical-align:top;">comment</td><td style="vertical-align:top;">:</td><td><div></div></td></tr><tr><td style="font-weight:bold;vertical-align:top;">domain</td><td style="vertical-align:top;">:</td><td><div></div></td></tr><tr><td style="font-weight:bold;vertical-align:top;">expires</td><td style="vertical-align:top;">:</td><td><div></div></td></tr><tr><td style="font-weight:bold;vertical-align:top;">httponly</td><td style="vertical-align:top;">:</td><td><div></div></td></tr><tr><td style="font-weight:bold;vertical-align:top;">max-age</td><td style="vertical-align:top;">:</td><td><div></div></td></tr><tr><td style="font-weight:bold;vertical-align:top;">path</td><td style="vertical-align:top;">:</td><td><div></div></td></tr><tr><td style="font-weight:bold;vertical-align:top;">secure</td><td style="vertical-align:top;">:</td><td><div></div></td></tr><tr><td style="font-weight:bold;vertical-align:top;">version</td><td style="vertical-align:top;">:</td><td><div></div></td></tr></table></div></td></tr></table></div></td></tr><tr><td style="font-weight:bold;vertical-align:top;">env</td><td style="vertical-align:top;">:</td><td><div><table><tr><td style="font-weight:bold;vertical-align:top;">CONTENT_LENGTH</td><td style="vertical-align:top;">:</td><td><div>666</div></td></tr><tr><td style="font-weight:bold;vertical-align:top;">CONTENT_TYPE</td><td style="vertical-align:top;">:</td><td><div>multipart/form-data; boundary=----WebKitFormBoundarymweWhm03uJVABaYu</div></td></tr><tr><td style="font-weight:bold;vertical-align:top;">HTTP_ACCEPT</td><td style="vertical-align:top;">:</td><td><div>text/html,application/xhtml+xml,application/xml;q=0.9,image/webp,*/*;q=0.8</div></td></tr><tr><td style="font-weight:bold;vertical-align:top;">HTTP_ACCEPT_ENCODING</td><td style="vertical-align:top;">:</td><td><div>gzip, deflate</div></td></tr><tr><td style="font-weight:bold;vertical-align:top;">HTTP_ACCEPT_LANGUAGE</td><td style="vertical-align:top;">:</td><td><div>en-US,en;q=0.8</div></td></tr><tr><td style="font-weight:bold;vertical-align:top;">HTTP_CACHE_CONTROL</td><td style="vertical-align:top;">:</td><td><div>max-age=0</div></td></tr><tr><td style="font-weight:bold;vertical-align:top;">HTTP_CONNECTION</td><td style="vertical-align:top;">:</td><td><div>keep-alive</div></td></tr><tr><td style="font-weight:bold;vertical-align:top;">HTTP_CONTENT_LENGTH</td><td style="vertical-align:top;">:</td><td><div>666</div></td></tr><tr><td style="font-weight:bold;vertical-align:top;">HTTP_CONTENT_TYPE</td><td style="vertical-align:top;">:</td><td><div>multipart/form-data; boundary=----WebKitFormBoundarymweWhm03uJVABaYu</div></td></tr><tr><td style="font-weight:bold;vertical-align:top;">HTTP_COOKIE</td><td style="vertical-align:top;">:</td><td><div>session_id_welcome=127.0.0.1-01d35e0e-c2a5-46f9-b3fc-14a845d9e0a8; session_id_admin=127.0.0.1-f0bc9352-d277-44fc-9030-39b878796882; session_id_beautfix=127.0.0.1-d250696f-6748-4682-bc30-c465f4135ed9</div></td></tr><tr><td style="font-weight:bold;vertical-align:top;">HTTP_HOST</td><td style="vertical-align:top;">:</td><td><div>127.0.0.1:8000</div></td></tr><tr><td style="font-weight:bold;vertical-align:top;">HTTP_ORIGIN</td><td style="vertical-align:top;">:</td><td><div>http://127.0.0.1:8000</div></td></tr><tr><td style="font-weight:bold;vertical-align:top;">HTTP_REFERER</td><td style="vertical-align:top;">:</td><td><div>http://127.0.0.1:8000/Beautfix/default/index/makeup/Nails/L%27Oreal%20Colour%20Riche%20Nail%20Femme%20Fatale%20Collection?posting=y</div></td></tr><tr><td style="font-weight:bold;vertical-align:top;">HTTP_USER_AGENT</td><td style="vertical-align:top;">:</td><td><div>Mozilla/5.0 (Windows NT 6.1; WOW64) AppleWebKit/537.36 (KHTML, like Gecko) Chrome/41.0.2272.89 Safari/537.36</div></td></tr><tr><td style="font-weight:bold;vertical-align:top;">PATH_INFO</td><td style="vertical-align:top;">:</td><td><div>/Beautfix/default/index/makeup/Nails/L&#x27;Oreal Colour Riche Nail Femme Fatale Collection</div></td></tr><tr><td style="font-weight:bold;vertical-align:top;">QUERY_STRING</td><td style="vertical-align:top;">:</td><td><div>posting=y</div></td></tr><tr><td style="font-weight:bold;vertical-align:top;">REMOTE_ADDR</td><td style="vertical-align:top;">:</td><td><div>127.0.0.1</div></td></tr><tr><td style="font-weight:bold;vertical-align:top;">REMOTE_PORT</td><td style="vertical-align:top;">:</td><td><div>51279</div></td></tr><tr><td style="font-weight:bold;vertical-align:top;">REQUEST_METHOD</td><td style="vertical-align:top;">:</td><td><div>POST</div></td></tr><tr><td style="font-weight:bold;vertical-align:top;">SCRIPT_NAME</td><td style="vertical-align:top;">:</td><td><div></div></td></tr><tr><td style="font-weight:bold;vertical-align:top;">SERVER_NAME</td><td style="vertical-align:top;">:</td><td><div>Matthew-PC</div></td></tr><tr><td style="font-weight:bold;vertical-align:top;">SERVER_PORT</td><td style="vertical-align:top;">:</td><td><div>8000</div></td></tr><tr><td style="font-weight:bold;vertical-align:top;">SERVER_PROTOCOL</td><td style="vertical-align:top;">:</td><td><div>HTTP/1.1</div></td></tr><tr><td style="font-weight:bold;vertical-align:top;">SERVER_SOFTWARE</td><td style="vertical-align:top;">:</td><td><div>Rocket 1.2.6</div></td></tr><tr><td style="font-weight:bold;vertical-align:top;">app_folders</td><td style="vertical-align:top;">:</td><td><div>set([&#x27;C:\\\\Users\\\\Matthew\\\\Desktop\\\\web2py\\\\applications\\\\admin\\\\&#x27;, &#x27;C:\\\\Users\\\\Matthew\\\\Desktop\\\\web2py\\\\applications\\\\welcome\\\\&#x27;, &#x27;C:\\\\Users\\\\Matthew\\\\Desktop\\\\web2py\\\\applications\\\\Beautfix\\\\&#x27;])</div></td></tr><tr><td style="font-weight:bold;vertical-align:top;">applications_parent</td><td style="vertical-align:top;">:</td><td><div>C:\\Users\\Matthew\\Desktop\\web2py</div></td></tr><tr><td style="font-weight:bold;vertical-align:top;">cmd_args</td><td style="vertical-align:top;">:</td><td><div><table></table></div></td></tr><tr><td style="font-weight:bold;vertical-align:top;">cmd_options</td><td style="vertical-align:top;">:</td><td><div>&lt;Values at 0x33895d0: {&#x27;verbose&#x27;: False, &#x27;ip&#x27;: &#x27;127.0.0.1&#x27;, &#x27;debuglevel&#x27;: 30, &#x27;with_scheduler&#x27;: False, &#x27;ips&#x27;: [], &#x27;shutdown_timeout&#x27;: 5, &#x27;taskbar&#x27;: False, &#x27;with_coverage&#x27;: False, &#x27;scheduler_groups&#x27;: None, &#x27;port&#x27;: 8000, &#x27;maxthreads&#x27;: None, &#x27;softcron&#x27;: False, &#x27;server_name&#x27;: &#x27;Matthew-PC&#x27;, &#x27;bpython&#x27;: False, &#x27;nogui&#x27;: False, &#x27;pid_filename&#x27;: &#x27;httpserver.pid&#x27;, &#x27;extcron&#x27;: False, &#x27;runcron&#x27;: False, &#x27;run_system_tests&#x27;: False, &#x27;test&#x27;: None, &#x27;folder&#x27;: &#x27;C:\\\\Users\\\\Matthew\\\\Desktop\\\\web2py&#x27;, &#x27;config&#x27;: &#x27;&#x27;, &#x27;minthreads&#x27;: None, &#x27;shell&#x27;: None, &#x27;run&#x27;: &#x27;&#x27;, &#x27;log_filename&#x27;: &#x27;httpserver.log&#x27;, &#x27;profiler_dir&#x27;: None, &#x27;args&#x27;: [&#x27;&#x27;], &#x27;socket_timeout&#x27;: 5, &#x27;ssl_ca_certificate&#x27;: None, &#x27;scheduler&#x27;: None, &#x27;interfaces&#x27;: None, &#x27;ssl_private_key&#x27;: &#x27;&#x27;, &#x27;gae&#x27;: None, &#x27;password&#x27;: &#x27;&lt;ask&gt;&#x27;, &#x27;request_queue_size&#x27;: 5, &#x27;ssl_certificate&#x27;: &#x27;&#x27;, &#x27;cronjob&#x27;: False, &#x27;numthreads&#x27;: None, &#x27;quiet&#x27;: False, &#x27;import_models&#x27;: False, &#x27;timeout&#x27;: 10, &#x27;plain&#x27;: False, &#x27;nobanner&#x27;: False}&gt;</div></td></tr><tr><td style="font-weight:bold;vertical-align:top;">content_length</td><td style="vertical-align:top;">:</td><td><div>666</div></td></tr><tr><td style="font-weight:bold;vertical-align:top;">content_type</td><td style="vertical-align:top;">:</td><td><div>multipart/form-data; boundary=----WebKitFormBoundarymweWhm03uJVABaYu</div></td></tr><tr><td style="font-weight:bold;vertical-align:top;">db_sessions</td><td style="vertical-align:top;">:</td><td><div>set([])</div></td></tr><tr><td style="font-weight:bold;vertical-align:top;">debugging</td><td style="vertical-align:top;">:</td><td><div>False</div></td></tr><tr><td style="font-weight:bold;vertical-align:top;">gluon_parent</td><td style="vertical-align:top;">:</td><td><div>C:\\Users\\Matthew\\Desktop\\web2py</div></td></tr><tr><td style="font-weight:bold;vertical-align:top;">http_accept</td><td style="vertical-align:top;">:</td><td><div>text/html,application/xhtml+xml,application/xml;q=0.9,image/webp,*/*;q=0.8</div></td></tr><tr><td style="font-weight:bold;vertical-align:top;">http_accept_encoding</td><td style="vertical-align:top;">:</td><td><div>gzip, deflate</div></td></tr><tr><td style="font-weight:bold;vertical-align:top;">http_accept_language</td><td style="vertical-align:top;">:</td><td><div>en-US,en;q=0.8</div></td></tr><tr><td style="font-weight:bold;vertical-align:top;">http_cache_control</td><td style="vertical-align:top;">:</td><td><div>max-age=0</div></td></tr><tr><td style="font-weight:bold;vertical-align:top;">http_connection</td><td style="vertical-align:top;">:</td><td><div>keep-alive</div></td></tr><tr><td style="font-weight:bold;vertical-align:top;">http_content_length</td><td style="vertical-align:top;">:</td><td><div>666</div></td></tr><tr><td style="font-weight:bold;vertical-align:top;">http_content_type</td><td style="vertical-align:top;">:</td><td><div>multipart/form-data; boundary=----WebKitFormBoundarymweWhm03uJVABaYu</div></td></tr><tr><td style="font-weight:bold;vertical-align:top;">http_cookie</td><td style="vertical-align:top;">:</td><td><div>session_id_welcome=127.0.0.1-01d35e0e-c2a5-46f9-b3fc-14a845d9e0a8; session_id_admin=127.0.0.1-f0bc9352-d277-44fc-9030-39b878796882; session_id_beautfix=127.0.0.1-d250696f-6748-4682-bc30-c465f4135ed9</div></td></tr><tr><td style="font-weight:bold;vertical-align:top;">http_host</td><td style="vertical-align:top;">:</td><td><div>127.0.0.1:8000</div></td></tr><tr><td style="font-weight:bold;vertical-align:top;">http_origin</td><td style="vertical-align:top;">:</td><td><div>http://127.0.0.1:8000</div></td></tr><tr><td style="font-weight:bold;vertical-align:top;">http_referer</td><td style="vertical-align:top;">:</td><td><div>http://127.0.0.1:8000/Beautfix/default/index/makeup/Nails/L%27Oreal%20Colour%20Riche%20Nail%20Femme%20Fatale%20Collection?posting=y</div></td></tr><tr><td style="font-weight:bold;vertical-align:top;">http_user_agent</td><td style="vertical-align:top;">:</td><td><div>Mozilla/5.0 (Windows NT 6.1; WOW64) AppleWebKit/537.36 (KHTML, like Gecko) Chrome/41.0.2272.89 Safari/537.36</div></td></tr><tr><td style="font-weight:bold;vertical-align:top;">is_jython</td><td style="vertical-align:top;">:</td><td><div>False</div></td></tr><tr><td style="font-weight:bold;vertical-align:top;">is_pypy</td><td style="vertical-align:top;">:</td><td><div>False</div></td></tr><tr><td style="font-weight:bold;vertical-align:top;">is_source</td><td style="vertical-align:top;">:</td><td><div>False</div></td></tr><tr><td style="font-weight:bold;vertical-align:top;">local_hosts</td><td style="vertical-align:top;">:</td><td><div><table><tr><td><div>Matthew-PC.ucsc.edu</div></td></tr><tr><td><div>fd6d:fd63:adf6:0:a4b0:1e47:fbfd:9389</div></td></tr><tr><td><div>fe80::a4b0:1e47:fbfd:9389%11</div></td></tr><tr><td><div>::1</div></td></tr><tr><td><div>::ffff:127.0.0.1</div></td></tr><tr><td><div>fd6d:fd63:adf6:0:8417:670b:ed1:9264</div></td></tr><tr><td><div>25.37.196.17</div></td></tr><tr><td><div>2620:9b::1925:c411</div></td></tr><tr><td><div>127.0.0.1</div></td></tr><tr><td><div>192.168.1.142</div></td></tr><tr><td><div>fe80::200:5efe:25.37.196.17%25</div></td></tr><tr><td><div>192.168.56.1</div></td></tr><tr><td><div>fe80::295c:65a2:cbe5:923a%22</div></td></tr><tr><td><div>fe80::292d:4a02:9b26:52b5%19</div></td></tr><tr><td><div>Matthew-PC</div></td></tr><tr><td><div>fe80::5efe:192.168.1.142%24</div></td></tr></table></div></td></tr><tr><td style="font-weight:bold;vertical-align:top;">path_info</td><td style="vertical-align:top;">:</td><td><div>/Beautfix/default/index/makeup/Nails/L&#x27;Oreal Colour Riche Nail Femme Fatale Collection</div></td></tr><tr><td style="font-weight:bold;vertical-align:top;">query_string</td><td style="vertical-align:top;">:</td><td><div>posting=y</div></td></tr><tr><td style="font-weight:bold;vertical-align:top;">remote_addr</td><td style="vertical-align:top;">:</td><td><div>127.0.0.1</div></td></tr><tr><td style="font-weight:bold;vertical-align:top;">remote_port</td><td style="vertical-align:top;">:</td><td><div>51279</div></td></tr><tr><td style="font-weight:bold;vertical-align:top;">request_method</td><td style="vertical-align:top;">:</td><td><div>POST</div></td></tr><tr><td style="font-weight:bold;vertical-align:top;">request_uri</td><td style="vertical-align:top;">:</td><td><div>/Beautfix/default/index/makeup/Nails/L&#x27;Oreal Colour Riche Nail Femme Fatale Collection?posting=y</div></td></tr><tr><td style="font-weight:bold;vertical-align:top;">script_name</td><td style="vertical-align:top;">:</td><td><div></div></td></tr><tr><td style="font-weight:bold;vertical-align:top;">server_name</td><td style="vertical-align:top;">:</td><td><div>Matthew-PC</div></td></tr><tr><td style="font-weight:bold;vertical-align:top;">server_port</td><td style="vertical-align:top;">:</td><td><div>8000</div></td></tr><tr><td style="font-weight:bold;vertical-align:top;">server_protocol</td><td style="vertical-align:top;">:</td><td><div>HTTP/1.1</div></td></tr><tr><td style="font-weight:bold;vertical-align:top;">server_software</td><td style="vertical-align:top;">:</td><td><div>Rocket 1.2.6</div></td></tr><tr><td style="font-weight:bold;vertical-align:top;">web2py_path</td><td style="vertical-align:top;">:</td><td><div>C:\\Users\\Matthew\\Desktop\\web2py</div></td></tr><tr><td style="font-weight:bold;vertical-align:top;">web2py_version</td><td style="vertical-align:top;">:</td><td><div>2.9.12-stable+timestamp.2015.01.17.06.11.03</div></td></tr><tr><td style="font-weight:bold;vertical-align:top;">wsgi.errors</td><td style="vertical-align:top;">:</td><td><div>&lt;open file &#x27;&lt;stderr&gt;&#x27;, mode &#x27;w&#x27; at 0x01C660D0&gt;</div></td></tr><tr><td style="font-weight:bold;vertical-align:top;">wsgi.file_wrapper</td><td style="vertical-align:top;">:</td><td><div>&lt;class wsgiref.util.FileWrapper at 0x023EDAE8&gt;</div></td></tr><tr><td style="font-weight:bold;vertical-align:top;">wsgi.input</td><td style="vertical-align:top;">:</td><td><div>&lt;socket._fileobject object at 0x07F8E6F0&gt;</div></td></tr><tr><td style="font-weight:bold;vertical-align:top;">wsgi.multiprocess</td><td style="vertical-align:top;">:</td><td><div>False</div></td></tr><tr><td style="font-weight:bold;vertical-align:top;">wsgi.multithread</td><td style="vertical-align:top;">:</td><td><div>True</div></td></tr><tr><td style="font-weight:bold;vertical-align:top;">wsgi.run_once</td><td style="vertical-align:top;">:</td><td><div>False</div></td></tr><tr><td style="font-weight:bold;vertical-align:top;">wsgi.url_scheme</td><td style="vertical-align:top;">:</td><td><div>http</div></td></tr><tr><td style="font-weight:bold;vertical-align:top;">wsgi.version</td><td style="vertical-align:top;">:</td><td><div><table><tr><td><div>1</div></td></tr><tr><td><div>0</div></td></tr></table></div></td></tr><tr><td style="font-weight:bold;vertical-align:top;">wsgi_errors</td><td style="vertical-align:top;">:</td><td><div>&lt;open file &#x27;&lt;stderr&gt;&#x27;, mode &#x27;w&#x27; at 0x01C660D0&gt;</div></td></tr><tr><td style="font-weight:bold;vertical-align:top;">wsgi_file_wrapper</td><td style="vertical-align:top;">:</td><td><div>&lt;class wsgiref.util.FileWrapper at 0x023EDAE8&gt;</div></td></tr><tr><td style="font-weight:bold;vertical-align:top;">wsgi_input</td><td style="vertical-align:top;">:</td><td><div>&lt;socket._fileobject object at 0x07F8E6F0&gt;</div></td></tr><tr><td style="font-weight:bold;vertical-align:top;">wsgi_multiprocess</td><td style="vertical-align:top;">:</td><td><div>False</div></td></tr><tr><td style="font-weight:bold;vertical-align:top;">wsgi_multithread</td><td style="vertical-align:top;">:</td><td><div>True</div></td></tr><tr><td style="font-weight:bold;vertical-align:top;">wsgi_run_once</td><td style="vertical-align:top;">:</td><td><div>False</div></td></tr><tr><td style="font-weight:bold;vertical-align:top;">wsgi_url_scheme</td><td style="vertical-align:top;">:</td><td><div>http</div></td></tr><tr><td style="font-weight:bold;vertical-align:top;">wsgi_version</td><td style="vertical-align:top;">:</td><td><div><table><tr><td><div>1</div></td></tr><tr><td><div>0</div></td></tr></table></div></td></tr></table></div></td></tr><tr><td style="font-weight:bold;vertical-align:top;">extension</td><td style="vertical-align:top;">:</td><td><div>html</div></td></tr><tr><td style="font-weight:bold;vertical-align:top;">folder</td><td style="vertical-align:top;">:</td><td><div>C:\\Users\\Matthew\\Desktop\\web2py\\applications\\Beautfix\\</div></td></tr><tr><td style="font-weight:bold;vertical-align:top;">function</td><td style="vertical-align:top;">:</td><td><div>index</div></td></tr><tr><td style="font-weight:bold;vertical-align:top;">global_settings</td><td style="vertical-align:top;">:</td><td><div><table><tr><td style="font-weight:bold;vertical-align:top;">app_folders</td><td style="vertical-align:top;">:</td><td><div>set([&#x27;C:\\\\Users\\\\Matthew\\\\Desktop\\\\web2py\\\\applications\\\\admin\\\\&#x27;, &#x27;C:\\\\Users\\\\Matthew\\\\Desktop\\\\web2py\\\\applications\\\\welcome\\\\&#x27;, &#x27;C:\\\\Users\\\\Matthew\\\\Desktop\\\\web2py\\\\applications\\\\Beautfix\\\\&#x27;])</div></td></tr><tr><td style="font-weight:bold;vertical-align:top;">applications_parent</td><td style="vertical-align:top;">:</td><td><div>C:\\Users\\Matthew\\Desktop\\web2py</div></td></tr><tr><td style="font-weight:bold;vertical-align:top;">cmd_args</td><td style="vertical-align:top;">:</td><td><div><table></table></div></td></tr><tr><td style="font-weight:bold;vertical-align:top;">cmd_options</td><td style="vertical-align:top;">:</td><td><div>&lt;Values at 0x33895d0: {&#x27;verbose&#x27;: False, &#x27;ip&#x27;: &#x27;127.0.0.1&#x27;, &#x27;debuglevel&#x27;: 30, &#x27;with_scheduler&#x27;: False, &#x27;ips&#x27;: [], &#x27;shutdown_timeout&#x27;: 5, &#x27;taskbar&#x27;: False, &#x27;with_coverage&#x27;: False, &#x27;scheduler_groups&#x27;: None, &#x27;port&#x27;: 8000, &#x27;maxthreads&#x27;: None, &#x27;softcron&#x27;: False, &#x27;server_name&#x27;: &#x27;Matthew-PC&#x27;, &#x27;bpython&#x27;: False, &#x27;nogui&#x27;: False, &#x27;pid_filename&#x27;: &#x27;httpserver.pid&#x27;, &#x27;extcron&#x27;: False, &#x27;runcron&#x27;: False, &#x27;run_system_tests&#x27;: False, &#x27;test&#x27;: None, &#x27;folder&#x27;: &#x27;C:\\\\Users\\\\Matthew\\\\Desktop\\\\web2py&#x27;, &#x27;config&#x27;: &#x27;&#x27;, &#x27;minthreads&#x27;: None, &#x27;shell&#x27;: None, &#x27;run&#x27;: &#x27;&#x27;, &#x27;log_filename&#x27;: &#x27;httpserver.log&#x27;, &#x27;profiler_dir&#x27;: None, &#x27;args&#x27;: [&#x27;&#x27;], &#x27;socket_timeout&#x27;: 5, &#x27;ssl_ca_certificate&#x27;: None, &#x27;scheduler&#x27;: None, &#x27;interfaces&#x27;: None, &#x27;ssl_private_key&#x27;: &#x27;&#x27;, &#x27;gae&#x27;: None, &#x27;password&#x27;: &#x27;&lt;ask&gt;&#x27;, &#x27;request_queue_size&#x27;: 5, &#x27;ssl_certificate&#x27;: &#x27;&#x27;, &#x27;cronjob&#x27;: False, &#x27;numthreads&#x27;: None, &#x27;quiet&#x27;: False, &#x27;import_models&#x27;: False, &#x27;timeout&#x27;: 10, &#x27;plain&#x27;: False, &#x27;nobanner&#x27;: False}&gt;</div></td></tr><tr><td style="font-weight:bold;vertical-align:top;">db_sessions</td><td style="vertical-align:top;">:</td><td><div>set([])</div></td></tr><tr><td style="font-weight:bold;vertical-align:top;">debugging</td><td style="vertical-align:top;">:</td><td><div>False</div></td></tr><tr><td style="font-weight:bold;vertical-align:top;">gluon_parent</td><td style="vertical-align:top;">:</td><td><div>C:\\Users\\Matthew\\Desktop\\web2py</div></td></tr><tr><td style="font-weight:bold;vertical-align:top;">is_jython</td><td style="vertical-align:top;">:</td><td><div>False</div></td></tr><tr><td style="font-weight:bold;vertical-align:top;">is_pypy</td><td style="vertical-align:top;">:</td><td><div>False</div></td></tr><tr><td style="font-weight:bold;vertical-align:top;">is_source</td><td style="vertical-align:top;">:</td><td><div>False</div></td></tr><tr><td style="font-weight:bold;vertical-align:top;">local_hosts</td><td style="vertical-align:top;">:</td><td><div><table><tr><td><div>Matthew-PC.ucsc.edu</div></td></tr><tr><td><div>fd6d:fd63:adf6:0:a4b0:1e47:fbfd:9389</div></td></tr><tr><td><div>fe80::a4b0:1e47:fbfd:9389%11</div></td></tr><tr><td><div>::1</div></td></tr><tr><td><div>::ffff:127.0.0.1</div></td></tr><tr><td><div>fd6d:fd63:adf6:0:8417:670b:ed1:9264</div></td></tr><tr><td><div>25.37.196.17</div></td></tr><tr><td><div>2620:9b::1925:c411</div></td></tr><tr><td><div>127.0.0.1</div></td></tr><tr><td><div>192.168.1.142</div></td></tr><tr><td><div>fe80::200:5efe:25.37.196.17%25</div></td></tr><tr><td><div>192.168.56.1</div></td></tr><tr><td><div>fe80::295c:65a2:cbe5:923a%22</div></td></tr><tr><td><div>fe80::292d:4a02:9b26:52b5%19</div></td></tr><tr><td><div>Matthew-PC</div></td></tr><tr><td><div>fe80::5efe:192.168.1.142%24</div></td></tr></table></div></td></tr><tr><td style="font-weight:bold;vertical-align:top;">web2py_version</td><td style="vertical-align:top;">:</td><td><div>2.9.12-stable+timestamp.2015.01.17.06.11.03</div></td></tr></table></div></td></tr><tr><td style="font-weight:bold;vertical-align:top;">is_https</td><td style="vertical-align:top;">:</td><td><div>False</div></td></tr><tr><td style="font-weight:bold;vertical-align:top;">is_local</td><td style="vertical-align:top;">:</td><td><div>True</div></td></tr><tr><td style="font-weight:bold;vertical-align:top;">is_restful</td><td style="vertical-align:top;">:</td><td><div>False</div></td></tr><tr><td style="font-weight:bold;vertical-align:top;">is_sheduler</td><td style="vertical-align:top;">:</td><td><div>None</div></td></tr><tr><td style="font-weight:bold;vertical-align:top;">is_shell</td><td style="vertical-align:top;">:</td><td><div>None</div></td></tr><tr><td style="font-weight:bold;vertical-align:top;">now</td><td style="vertical-align:top;">:</td><td><div>datetime.datetime(2015, 3, 17, 11, 3, 3, 223000)</div></td></tr><tr><td style="font-weight:bold;vertical-align:top;">raw_args</td><td style="vertical-align:top;">:</td><td><div>makeup/Nails/L&#x27;Oreal Colour Riche Nail Femme Fatale Collection</div></td></tr><tr><td style="font-weight:bold;vertical-align:top;">raw_extension</td><td style="vertical-align:top;">:</td><td><div>None</div></td></tr><tr><td style="font-weight:bold;vertical-align:top;">url</td><td style="vertical-align:top;">:</td><td><div>/Beautfix/default/index/makeup/Nails/L&#x27;Oreal Colour Riche Nail Femme Fatale Collection</div></td></tr><tr><td style="font-weight:bold;vertical-align:top;">utcnow</td><td style="vertical-align:top;">:</td><td><div>datetime.datetime(2015, 3, 17, 18, 3, 3, 223000)</div></td></tr><tr><td style="font-weight:bold;vertical-align:top;">uuid</td><td style="vertical-align:top;">:</td><td><div>Beautfix/127.0.0.1.2015-03-17.11-03-03.0de08f27-4a06-4d4d-a7d3-7a4eb69abaf1</div></td></tr><tr><td style="font-weight:bold;vertical-align:top;">wsgi</td><td style="vertical-align:top;">:</td><td><div>&lt;gluon.main.LazyWSGI object at 0x08251290&gt;</div></td></tr></table></div>'
tRp58
sS'frames'
p59
(lp60
(dp61
S'file'
p62
S'C:\\Users\\Matthew\\Desktop\\web2py\\gluon\\restricted.py'
p63
sS'dump'
p64
(dp65
sS'lnum'
p66
I224
sS'lines'
p67
(dp68
sS'call'
p69
S"(code='# -*- coding: utf-8 -*-\\n# this file is released ...e,rules)\\n\\nresponse._vars=response._caller(index)\\n', environment={'A': <class 'gluon.html.A'>, 'ANY_OF': <class 'gluon.validators.ANY_OF'>, 'ASSIGNJS': <function ASSIGNJS>, 'Auth': <class 'gluon.tools.Auth'>, 'B': <class 'gluon.html.B'>, 'BATHBODY_CATEGORY': ['LotionCreams', 'BathShower', 'Sun', 'Other'], 'BEAUTIFY': <class 'gluon.html.BEAUTIFY'>, 'BODY': <class 'gluon.html.BODY'>, 'BR': <class 'gluon.html.BR'>, 'BUTTON': <class 'gluon.html.BUTTON'>, ...}, layer=r'C:\\Users\\Matthew\\Desktop\\web2py\\applications\\Beautfix\\controllers/default.py')"
p70
sS'func'
p71
S'restricted'
p72
sa(dp73
g62
S'C:\\Users\\Matthew\\Desktop\\web2py\\applications\\Beautfix\\controllers\\default.py'
p74
sg64
(dp75
sg66
I378
sg67
(dp76
I367
S'def api():'
p77
sI368
S'    """'
p78
sI369
S'    this is example of API with access control'
p79
sI370
S'    WEB2PY provides Hypermedia API (Collection+JSON) Experimental'
p80
sI371
S'    """'
p81
sI372
S'    from gluon.contrib.hypermedia import Collection'
p82
sI373
S'    rules = {'
p83
sI374
S"        '<tablename>': {'GET':{},'POST':{},'PUT':{},'DELETE':{}},"
p84
sI375
S'        }'
p85
sI376
S'    return Collection(db).process(request,response,rules)'
p86
ssg69
S'()'
p87
sg71
S'<module>'
p88
sa(dp89
g62
S'C:\\Users\\Matthew\\Desktop\\web2py\\gluon\\globals.py'
p90
sg64
(dp91
sg66
I393
sg67
(dp92
sg69
S'(f=<function index>)'
p93
sg71
S'<lambda>'
p94
sa(dp95
g62
S'C:\\Users\\Matthew\\Desktop\\web2py\\applications\\Beautfix\\controllers\\default.py'
p96
sg64
(dp97
S'product'
p98
S'undefined'
p99
sS'form.vars'
p100
S"<Storage {'body': 'ytes', 'rating': '5', 'price_range': '2', 'image': '', 'id': None}>"
p101
sS'form.vars.product'
p102
S'None'
p103
sS'form'
p104
S'<gluon.sqlhtml.SQLFORM object>'
p105
sS'image'
p106
g99
sS'form.vars.image'
p107
S"''"
p108
sS'form.vars.product.title'
p109
g99
ssg66
I289
sg67
(dp110
I288
S'                         total_price_range = form.vars.price_range, rating = form.vars.rating, totalRating = form.vars.rating,'
p111
sI289
S'                         image = form.vars.image, product = form.vars.product.title())'
p112
sI290
S'                else:'
p113
sI291
S'                    product_id = displayDB.insert(body=form.vars.body, category=form.vars.category, price_range = form.vars.price_range,'
p114
sI292
S'                         total_price_range = form.vars.price_range, rating = form.vars.rating, totalRating = form.vars.rating,'
p115
sI293
S'                         image = form.vars.image, product = form.vars.product.title())'
p116
sI284
S''
sI285
S'            else:'
p117
sI286
S'                if subCategory is not None:'
p118
sI287
S'                    product_id = displayDB.insert(body=form.vars.body, category=subCategory, price_range = form.vars.price_range,'
p119
ssg69
S'()'
p120
sg71
S'index'
p121
sasS'pyver'
p122
S'Python 2.7.6: C:\\Users\\Matthew\\Desktop\\web2py\\web2py.exe (prefix: )'
p123
sS'session'
p124
g57
(S's\xbc\t\x00\x00<div><table><tr><td style="font-weight:bold;vertical-align:top;">auth</td><td style="vertical-align:top;">:</td><td><div><table><tr><td style="font-weight:bold;vertical-align:top;">expiration</td><td style="vertical-align:top;">:</td><td><div>3600</div></td></tr><tr><td style="font-weight:bold;vertical-align:top;">hmac_key</td><td style="vertical-align:top;">:</td><td><div>400ca938-ed31-4292-9b5c-804aed8b6aca</div></td></tr><tr><td style="font-weight:bold;vertical-align:top;">last_visit</td><td style="vertical-align:top;">:</td><td><div>datetime.datetime(2015, 3, 17, 11, 2, 48, 654000)</div></td></tr><tr><td style="font-weight:bold;vertical-align:top;">remember_me</td><td style="vertical-align:top;">:</td><td><div>False</div></td></tr><tr><td style="font-weight:bold;vertical-align:top;">user</td><td style="vertical-align:top;">:</td><td><div><table><tr><td style="font-weight:bold;vertical-align:top;">Picture</td><td style="vertical-align:top;">:</td><td><div>auth_user.Picture.a664536a294288ad.7065646f2e617070726f7665642e626561722e706e67.png</div></td></tr><tr><td style="font-weight:bold;vertical-align:top;">email</td><td style="vertical-align:top;">:</td><td><div>bwichers@ucsc.edu</div></td></tr><tr><td style="font-weight:bold;vertical-align:top;">first_name</td><td style="vertical-align:top;">:</td><td><div>Brian</div></td></tr><tr><td style="font-weight:bold;vertical-align:top;">id</td><td style="vertical-align:top;">:</td><td><div>2L</div></td></tr><tr><td style="font-weight:bold;vertical-align:top;">last_name</td><td style="vertical-align:top;">:</td><td><div>Wichers</div></td></tr><tr><td style="font-weight:bold;vertical-align:top;">registration_id</td><td style="vertical-align:top;">:</td><td><div></div></td></tr><tr><td style="font-weight:bold;vertical-align:top;">registration_key</td><td style="vertical-align:top;">:</td><td><div></div></td></tr><tr><td style="font-weight:bold;vertical-align:top;">reset_password_key</td><td style="vertical-align:top;">:</td><td><div></div></td></tr></table></div></td></tr><tr><td style="font-weight:bold;vertical-align:top;">user_groups</td><td style="vertical-align:top;">:</td><td><div><table><tr><td style="font-weight:bold;vertical-align:top;">2</td><td style="vertical-align:top;">:</td><td><div>user_2</div></td></tr></table></div></td></tr></table></div></td></tr><tr><td style="font-weight:bold;vertical-align:top;">flash</td><td style="vertical-align:top;">:</td><td><div>None</div></td></tr></table></div>'
tRp125
sS'etype'
p126
S"<type 'exceptions.AttributeError'>"
p127
sS'date'
p128
S'Tue Mar 17 11:03:03 2015'
p129
sS'response'
p130
g57
(S's5O\x00\x00<div><table><tr><td style="font-weight:bold;vertical-align:top;">body</td><td style="vertical-align:top;">:</td><td><div>&lt;cStringIO.StringO object at 0x07DFD2A0&gt;</div></td></tr><tr><td style="font-weight:bold;vertical-align:top;">cookies</td><td style="vertical-align:top;">:</td><td><div><table><tr><td style="font-weight:bold;vertical-align:top;">session_id_beautfix</td><td style="vertical-align:top;">:</td><td><div>127.0.0.1-d250696f-6748-4682-bc30-c465f4135ed9<table><tr><td style="font-weight:bold;vertical-align:top;">comment</td><td style="vertical-align:top;">:</td><td><div></div></td></tr><tr><td style="font-weight:bold;vertical-align:top;">domain</td><td style="vertical-align:top;">:</td><td><div></div></td></tr><tr><td style="font-weight:bold;vertical-align:top;">expires</td><td style="vertical-align:top;">:</td><td><div></div></td></tr><tr><td style="font-weight:bold;vertical-align:top;">httponly</td><td style="vertical-align:top;">:</td><td><div></div></td></tr><tr><td style="font-weight:bold;vertical-align:top;">max-age</td><td style="vertical-align:top;">:</td><td><div></div></td></tr><tr><td style="font-weight:bold;vertical-align:top;">path</td><td style="vertical-align:top;">:</td><td><div>/</div></td></tr><tr><td style="font-weight:bold;vertical-align:top;">secure</td><td style="vertical-align:top;">:</td><td><div></div></td></tr><tr><td style="font-weight:bold;vertical-align:top;">version</td><td style="vertical-align:top;">:</td><td><div></div></td></tr></table></div></td></tr></table></div></td></tr><tr><td style="font-weight:bold;vertical-align:top;">delimiters</td><td style="vertical-align:top;">:</td><td><div><table><tr><td><div>{{</div></td></tr><tr><td><div>}}</div></td></tr></table></div></td></tr><tr><td style="font-weight:bold;vertical-align:top;">files</td><td style="vertical-align:top;">:</td><td><div><table></table></div></td></tr><tr><td style="font-weight:bold;vertical-align:top;">flash</td><td style="vertical-align:top;">:</td><td><div>Success!</div></td></tr><tr><td style="font-weight:bold;vertical-align:top;">form_label_separator</td><td style="vertical-align:top;">:</td><td><div>: </div></td></tr><tr><td style="font-weight:bold;vertical-align:top;">formstyle</td><td style="vertical-align:top;">:</td><td><div>table3cols</div></td></tr><tr><td style="font-weight:bold;vertical-align:top;">generic_patterns</td><td style="vertical-align:top;">:</td><td><div><table><tr><td><div>*</div></td></tr></table></div></td></tr><tr><td style="font-weight:bold;vertical-align:top;">google_analytics_id</td><td style="vertical-align:top;">:</td><td><div>None</div></td></tr><tr><td style="font-weight:bold;vertical-align:top;">headers</td><td style="vertical-align:top;">:</td><td><div><table><tr><td style="font-weight:bold;vertical-align:top;">X-Powered-By</td><td style="vertical-align:top;">:</td><td><div>web2py</div></td></tr></table></div></td></tr><tr><td style="font-weight:bold;vertical-align:top;">logo</td><td style="vertical-align:top;">:</td><td><div><a class="brand"><b>BeautFix</b>&trade;&nbsp;</a></div></td></tr><tr><td style="font-weight:bold;vertical-align:top;">menu</td><td style="vertical-align:top;">:</td><td><div><table><tr><td><div><table><tr><td><div>Home</div></td></tr><tr><td><div>False</div></td></tr><tr><td><div>/Beautfix/default/index</div></td></tr><tr><td><div><table></table></div></td></tr></table></div></td></tr><tr><td><div><table><tr><td><div>Write a review</div></td></tr><tr><td><div>False</div></td></tr><tr><td><div>/Beautfix/default/reviews</div></td></tr><tr><td><div><table></table></div></td></tr></table></div></td></tr><tr><td><div><table><tr><td><div>Forums</div></td></tr><tr><td><div>False</div></td></tr><tr><td><div>/Beautfix/default/forums</div></td></tr><tr><td><div><table></table></div></td></tr></table></div></td></tr><tr><td><div><table><tr><td><div>Account</div></td></tr><tr><td><div>False</div></td></tr><tr><td><div>/Beautfix/default/account</div></td></tr><tr><td><div><table></table></div></td></tr></table></div></td></tr><tr><td><div><table><tr><td><div><span class="highlighted">web2py</span></div></td></tr><tr><td><div>False</div></td></tr><tr><td><div>http://web2py.com</div></td></tr><tr><td><div><table><tr><td><div><table><tr><td><div>My Sites</div></td></tr><tr><td><div>False</div></td></tr><tr><td><div>/admin/default/site</div></td></tr></table></div></td></tr><tr><td><div><table><tr><td><div>This App</div></td></tr><tr><td><div>False</div></td></tr><tr><td><div>/admin/default/design/Beautfix</div></td></tr><tr><td><div>[(&lt;lazyT &#x27;Controller&#x27;&gt;, False, &#x27;/admin/default/edit/Beautfix/controllers/default.py&#x27;), (&lt;lazyT &#x27;View&#x27;&gt;, False, &#x27;/admin/default/edit/Beautfix/views/default/index.html&#x27;), (&lt;lazyT &#x27;Layout&#x27;&gt;, False, &#x27;/admin/default/edit/Beautfix/views/layout.html&#x27;), (&lt;lazyT &#x27;Stylesheet&#x27;&gt;, False, &#x27;/admin/default/edit/Beautfix/static/css/web2py.css&#x27;), (&lt;lazyT &#x27;DB Model&#x27;&gt;, False, &#x27;/admin/default/edit/Beautfix/models/db.py&#x27;), (&lt;lazyT &#x27;Menu Model&#x27;&gt;, False, &#x27;/admin/default/edit/Beautfix/models/menu.py&#x27;), (&lt;lazyT &#x27;Database&#x27;&gt;, False, &#x27;/Beautfix/appadmin/index&#x27;), (&lt;lazyT &#x27;Errors&#x27;&gt;, False, &#x27;/admin/default/errors/Beautfix&#x27;), (&lt;lazyT &#x27;About&#x27;&gt;, False, &#x27;/admin/default/about/Beautfix&#x27;)]</div></td></tr></table></div></td></tr><tr><td><div><table><tr><td><div>web2py.com</div></td></tr><tr><td><div>False</div></td></tr><tr><td><div>http://www.web2py.com</div></td></tr><tr><td><div>[(&lt;lazyT &#x27;Download&#x27;&gt;, False, &#x27;http://www.web2py.com/examples/default/download&#x27;), (&lt;lazyT &#x27;Support&#x27;&gt;, False, &#x27;http://www.web2py.com/examples/default/support&#x27;), (&lt;lazyT &#x27;Demo&#x27;&gt;, False, &#x27;http://web2py.com/demo_admin&#x27;), (&lt;lazyT &#x27;Quick Examples&#x27;&gt;, False, &#x27;http://web2py.com/examples/default/examples&#x27;), (&lt;lazyT &#x27;FAQ&#x27;&gt;, False, &#x27;http://web2py.com/AlterEgo&#x27;), (&lt;lazyT &#x27;Videos&#x27;&gt;, False, &#x27;http://www.web2py.com/examples/default/videos/&#x27;), (&lt;lazyT &#x27;Free Applications&#x27;&gt;, False, &#x27;http://web2py.com/appliances&#x27;), (&lt;lazyT &#x27;Plugins&#x27;&gt;, False, &#x27;http://web2py.com/plugins&#x27;), (&lt;lazyT &#x27;Layouts&#x27;&gt;, False, &#x27;http://web2py.com/layouts&#x27;), (&lt;lazyT &#x27;Recipes&#x27;&gt;, False, &#x27;http://web2pyslices.com/&#x27;), (&lt;lazyT &#x27;Semantic&#x27;&gt;, False, &#x27;http://web2py.com/semantic&#x27;)]</div></td></tr></table></div></td></tr><tr><td><div><table><tr><td><div>Documentation</div></td></tr><tr><td><div>False</div></td></tr><tr><td><div>http://www.web2py.com/book</div></td></tr><tr><td><div>[(&lt;lazyT &#x27;Preface&#x27;&gt;, False, &#x27;http://www.web2py.com/book/default/chapter/00&#x27;), (&lt;lazyT &#x27;Introduction&#x27;&gt;, False, &#x27;http://www.web2py.com/book/default/chapter/01&#x27;), (&lt;lazyT &#x27;Python&#x27;&gt;, False, &#x27;http://www.web2py.com/book/default/chapter/02&#x27;), (&lt;lazyT &#x27;Overview&#x27;&gt;, False, &#x27;http://www.web2py.com/book/default/chapter/03&#x27;), (&lt;lazyT &#x27;The Core&#x27;&gt;, False, &#x27;http://www.web2py.com/book/default/chapter/04&#x27;), (&lt;lazyT &#x27;The Views&#x27;&gt;, False, &#x27;http://www.web2py.com/book/default/chapter/05&#x27;), (&lt;lazyT &#x27;Database&#x27;&gt;, False, &#x27;http://www.web2py.com/book/default/chapter/06&#x27;), (&lt;lazyT &#x27;Forms and Validators&#x27;&gt;, False, &#x27;http://www.web2py.com/book/default/chapter/07&#x27;), (&lt;lazyT &#x27;Email and SMS&#x27;&gt;, False, &#x27;http://www.web2py.com/book/default/chapter/08&#x27;), (&lt;lazyT &#x27;Access Control&#x27;&gt;, False, &#x27;http://www.web2py.com/book/default/chapter/09&#x27;), (&lt;lazyT &#x27;Services&#x27;&gt;, False, &#x27;http://www.web2py.com/book/default/chapter/10&#x27;), (&lt;lazyT &#x27;Ajax Recipes&#x27;&gt;, False, &#x27;http://www.web2py.com/book/default/chapter/11&#x27;), (&lt;lazyT &#x27;Components and Plugins&#x27;&gt;, False, &#x27;http://www.web2py.com/book/default/chapter/12&#x27;), (&lt;lazyT &#x27;Deployment Recipes&#x27;&gt;, False, &#x27;http://www.web2py.com/book/default/chapter/13&#x27;), (&lt;lazyT &#x27;Other Recipes&#x27;&gt;, False, &#x27;http://www.web2py.com/book/default/chapter/14&#x27;), (&lt;lazyT &#x27;Buy this book&#x27;&gt;, False, &#x27;http://stores.lulu.com/web2py&#x27;)]</div></td></tr></table></div></td></tr><tr><td><div><table><tr><td><div>Community</div></td></tr><tr><td><div>False</div></td></tr><tr><td><div>None</div></td></tr><tr><td><div>[(&lt;lazyT &#x27;Groups&#x27;&gt;, False, &#x27;http://www.web2py.com/examples/default/usergroups&#x27;), (&lt;lazyT &#x27;Twitter&#x27;&gt;, False, &#x27;http://twitter.com/web2py&#x27;), (&lt;lazyT &#x27;Live Chat&#x27;&gt;, False, &#x27;http://webchat.freenode.net/?channels=web2py&#x27;)]</div></td></tr></table></div></td></tr><tr><td><div><table><tr><td><div>Plugins</div></td></tr><tr><td><div>False</div></td></tr><tr><td><div>None</div></td></tr><tr><td><div>[(&#x27;plugin_wiki&#x27;, False, &#x27;http://web2py.com/examples/default/download&#x27;), (&lt;lazyT &#x27;Other Plugins&#x27;&gt;, False, &#x27;http://web2py.com/plugins&#x27;), (&lt;lazyT &#x27;Layout Plugins&#x27;&gt;, False, &#x27;http://web2py.com/layouts&#x27;)]</div></td></tr></table></div></td></tr></table></div></td></tr></table></div></td></tr></table></div></td></tr><tr><td style="font-weight:bold;vertical-align:top;">menu2</td><td style="vertical-align:top;">:</td><td><div><table><tr><td><div><table><tr><td><div>Makeup</div></td></tr><tr><td><div>False</div></td></tr><tr><td><div>/Beautfix/default/index/makeup</div></td></tr><tr><td><div><table><tr><td><div><table><tr><td><div>Face Makeup</div></td></tr><tr><td><div>False</div></td></tr><tr><td><div>/Beautfix/default/index/makeup/FaceMakeup</div></td></tr></table></div></td></tr><tr><td><div><table><tr><td><div>Body Makeup</div></td></tr><tr><td><div>False</div></td></tr><tr><td><div>/Beautfix/default/index/makeup/BodyMakeup</div></td></tr></table></div></td></tr><tr><td><div><table><tr><td><div>Eye Makeup</div></td></tr><tr><td><div>False</div></td></tr><tr><td><div>/Beautfix/default/index/makeup/EyeMakeup</div></td></tr></table></div></td></tr><tr><td><div><table><tr><td><div>Lips</div></td></tr><tr><td><div>False</div></td></tr><tr><td><div>/Beautfix/default/index/makeup/Lips</div></td></tr></table></div></td></tr><tr><td><div><table><tr><td><div>Nails</div></td></tr><tr><td><div>False</div></td></tr><tr><td><div>/Beautfix/default/index/makeup/Nails</div></td></tr></table></div></td></tr></table></div></td></tr></table></div></td></tr><tr><td><div><table><tr><td><div>Skin Care</div></td></tr><tr><td><div>False</div></td></tr><tr><td><div>/Beautfix/default/index/skinCare</div></td></tr><tr><td><div><table><tr><td><div><table><tr><td><div>Wash</div></td></tr><tr><td><div>False</div></td></tr><tr><td><div>/Beautfix/default/index/skinCare/Wash</div></td></tr></table></div></td></tr><tr><td><div><table><tr><td><div>Moisturizers</div></td></tr><tr><td><div>False</div></td></tr><tr><td><div>/Beautfix/default/index/skinCare/Moisturizers</div></td></tr></table></div></td></tr><tr><td><div><table><tr><td><div>Treatments</div></td></tr><tr><td><div>False</div></td></tr><tr><td><div>/Beautfix/default/index/skinCare/Treatments</div></td></tr></table></div></td></tr><tr><td><div><table><tr><td><div>Sunscreens</div></td></tr><tr><td><div>False</div></td></tr><tr><td><div>/Beautfix/default/index/skinCareSunscreens</div></td></tr></table></div></td></tr><tr><td><div><table><tr><td><div>Tanners</div></td></tr><tr><td><div>False</div></td></tr><tr><td><div>/Beautfix/default/index/skinCare/Tanners</div></td></tr></table></div></td></tr><tr><td><div><table><tr><td><div>Whiteners</div></td></tr><tr><td><div>False</div></td></tr><tr><td><div>/Beautfix/default/index/skinCare/Whiteners</div></td></tr></table></div></td></tr><tr><td><div><table><tr><td><div>Other</div></td></tr><tr><td><div>False</div></td></tr><tr><td><div>/Beautfix/default/index/skinCare/Other</div></td></tr></table></div></td></tr></table></div></td></tr></table></div></td></tr><tr><td><div><table><tr><td><div>Bath and Body</div></td></tr><tr><td><div>False</div></td></tr><tr><td><div>/Beautfix/default/index/bathBody</div></td></tr><tr><td><div><table><tr><td><div><table><tr><td><div>Lotions and Creams</div></td></tr><tr><td><div>False</div></td></tr><tr><td><div>/Beautfix/default/index/bathBody/LotionCreams</div></td></tr></table></div></td></tr><tr><td><div><table><tr><td><div>Bath and Shower</div></td></tr><tr><td><div>False</div></td></tr><tr><td><div>/Beautfix/default/index/bathBody/BathShower</div></td></tr></table></div></td></tr><tr><td><div><table><tr><td><div>Sun</div></td></tr><tr><td><div>False</div></td></tr><tr><td><div>/Beautfix/default/index/bathBody/Sun</div></td></tr></table></div></td></tr><tr><td><div><table><tr><td><div>Other</div></td></tr><tr><td><div>False</div></td></tr><tr><td><div>/Beautfix/default/index/bathBody/Other</div></td></tr></table></div></td></tr></table></div></td></tr></table></div></td></tr><tr><td><div><table><tr><td><div>Hair</div></td></tr><tr><td><div>False</div></td></tr><tr><td><div>/Beautfix/default/index/hair</div></td></tr><tr><td><div><table><tr><td><div><table><tr><td><div>Styling products &amp; tools</div></td></tr><tr><td><div>False</div></td></tr><tr><td><div>/Beautfix/default/index/hair/StylingTools</div></td></tr></table></div></td></tr><tr><td><div><table><tr><td><div>Treatment</div></td></tr><tr><td><div>False</div></td></tr><tr><td><div>/Beautfix/default/index/hair/Treatment</div></td></tr></table></div></td></tr><tr><td><div><table><tr><td><div>Shampoo &amp; Conditioner</div></td></tr><tr><td><div>False</div></td></tr><tr><td><div>/Beautfix/default/index/hair/ShampooConditioner</div></td></tr></table></div></td></tr><tr><td><div><table><tr><td><div>Other</div></td></tr><tr><td><div>False</div></td></tr><tr><td><div>/Beautfix/default/index/hair/Other</div></td></tr></table></div></td></tr></table></div></td></tr></table></div></td></tr><tr><td><div><table><tr><td><div>Tools and Brushes</div></td></tr><tr><td><div>False</div></td></tr><tr><td><div>/Beautfix/default/index/toolsBrushes</div></td></tr><tr><td><div><table><tr><td><div><table><tr><td><div>Hair Styling Tools</div></td></tr><tr><td><div>False</div></td></tr><tr><td><div>/Beautfix/default/index/toolsBrushes/HairStyleTools</div></td></tr></table></div></td></tr><tr><td><div><table><tr><td><div>Makeup brushes &amp; Applicators</div></td></tr><tr><td><div>False</div></td></tr><tr><td><div>/Beautfix/default/index/toolsBrushes/MakeupBrushesApplicators</div></td></tr></table></div></td></tr><tr><td><div><table><tr><td><div>Other</div></td></tr><tr><td><div>False</div></td></tr><tr><td><div>/Beautfix/default/index/toolsBrushes/Other</div></td></tr></table></div></td></tr></table></div></td></tr></table></div></td></tr><tr><td><div><table><tr><td><div>Men</div></td></tr><tr><td><div>False</div></td></tr><tr><td><div>/Beautfix/default/index/men</div></td></tr><tr><td><div><table><tr><td><div><table><tr><td><div>Fragrance</div></td></tr><tr><td><div>False</div></td></tr><tr><td><div>/Beautfix/default/index/men/Fragrance</div></td></tr></table></div></td></tr><tr><td><div><table><tr><td><div>Skin Care</div></td></tr><tr><td><div>False</div></td></tr><tr><td><div>/Beautfix/default/index/men/SkinCare</div></td></tr></table></div></td></tr><tr><td><div><table><tr><td><div>Shaving</div></td></tr><tr><td><div>False</div></td></tr><tr><td><div>/Beautfix/default/index/men/Shaving</div></td></tr></table></div></td></tr><tr><td><div><table><tr><td><div>Hair</div></td></tr><tr><td><div>False</div></td></tr><tr><td><div>/Beautfix/default/index/men/Hair</div></td></tr></table></div></td></tr><tr><td><div><table><tr><td><div>Other</div></td></tr><tr><td><div>False</div></td></tr><tr><td><div>/Beautfix/default/index/men/Other</div></td></tr></table></div></td></tr></table></div></td></tr></table></div></td></tr></table></div></td></tr><tr><td style="font-weight:bold;vertical-align:top;">meta</td><td style="vertical-align:top;">:</td><td><div><table><tr><td style="font-weight:bold;vertical-align:top;">author</td><td style="vertical-align:top;">:</td><td><div>Your Name &lt;you@example.com&gt;</div></td></tr><tr><td style="font-weight:bold;vertical-align:top;">generator</td><td style="vertical-align:top;">:</td><td><div>Web2py Web Framework</div></td></tr><tr><td style="font-weight:bold;vertical-align:top;">keywords</td><td style="vertical-align:top;">:</td><td><div>web2py, python, framework</div></td></tr></table></div></td></tr><tr><td style="font-weight:bold;vertical-align:top;">models_to_run</td><td style="vertical-align:top;">:</td><td><div><table><tr><td><div>^\\w+\\.py$</div></td></tr><tr><td><div>^default/\\w+\\.py$</div></td></tr><tr><td><div>^default/index/\\w+\\.py$</div></td></tr></table></div></td></tr><tr><td style="font-weight:bold;vertical-align:top;">postprocessing</td><td style="vertical-align:top;">:</td><td><div><table></table></div></td></tr><tr><td style="font-weight:bold;vertical-align:top;">session_client</td><td style="vertical-align:top;">:</td><td><div>127.0.0.1</div></td></tr><tr><td style="font-weight:bold;vertical-align:top;">session_cookie_compression_level</td><td style="vertical-align:top;">:</td><td><div>None</div></td></tr><tr><td style="font-weight:bold;vertical-align:top;">session_cookie_expires</td><td style="vertical-align:top;">:</td><td><div>None</div></td></tr><tr><td style="font-weight:bold;vertical-align:top;">session_cookie_key</td><td style="vertical-align:top;">:</td><td><div>None</div></td></tr><tr><td style="font-weight:bold;vertical-align:top;">session_data_name</td><td style="vertical-align:top;">:</td><td><div>session_data_beautfix</div></td></tr><tr><td style="font-weight:bold;vertical-align:top;">session_file</td><td style="vertical-align:top;">:</td><td><div>&lt;open file &#x27;C:\\\\Users\\\\Matthew\\\\Desktop\\\\web2py\\\\applications\\\\Beautfix\\\\sessions\\\\0df\\\\190\\\\127.0.0.1-d250696f-6748-4682-bc30-c465f4135ed9&#x27;, mode &#x27;rb+&#x27; at 0x080A6758&gt;</div></td></tr><tr><td style="font-weight:bold;vertical-align:top;">session_filename</td><td style="vertical-align:top;">:</td><td><div>C:\\Users\\Matthew\\Desktop\\web2py\\applications\\Beautfix\\sessions\\127.0.0.1-d250696f-6748-4682-bc30-c465f4135ed9</div></td></tr><tr><td style="font-weight:bold;vertical-align:top;">session_hash</td><td style="vertical-align:top;">:</td><td><div>0f08526366fbec7c77ff48999f2a340c</div></td></tr><tr><td style="font-weight:bold;vertical-align:top;">session_id</td><td style="vertical-align:top;">:</td><td><div>127.0.0.1-d250696f-6748-4682-bc30-c465f4135ed9</div></td></tr><tr><td style="font-weight:bold;vertical-align:top;">session_id_name</td><td style="vertical-align:top;">:</td><td><div>session_id_beautfix</div></td></tr><tr><td style="font-weight:bold;vertical-align:top;">session_locked</td><td style="vertical-align:top;">:</td><td><div>True</div></td></tr><tr><td style="font-weight:bold;vertical-align:top;">session_masterapp</td><td style="vertical-align:top;">:</td><td><div>Beautfix</div></td></tr><tr><td style="font-weight:bold;vertical-align:top;">session_new</td><td style="vertical-align:top;">:</td><td><div>False</div></td></tr><tr><td style="font-weight:bold;vertical-align:top;">session_storage_type</td><td style="vertical-align:top;">:</td><td><div>file</div></td></tr><tr><td style="font-weight:bold;vertical-align:top;">status</td><td style="vertical-align:top;">:</td><td><div>200</div></td></tr><tr><td style="font-weight:bold;vertical-align:top;">subtitle</td><td style="vertical-align:top;">:</td><td><div></div></td></tr><tr><td style="font-weight:bold;vertical-align:top;">title</td><td style="vertical-align:top;">:</td><td><div></div></td></tr><tr><td style="font-weight:bold;vertical-align:top;">view</td><td style="vertical-align:top;">:</td><td><div>default/index.html</div></td></tr></table></div>'
tRp131
sS'locals'
p132
(dp133
S'category'
p134
S"'makeup'"
p135
sS'posting'
p136
S'True'
p137
sS'form'
p138
S'<gluon.sqlhtml.SQLFORM object>'
p139
sS'title'
p140
S"'BeautFix'"
p141
sS'button'
p142
S"''"
p143
sS'requiredCategory'
p144
S"['FaceMakeup', 'BodyMakeup', 'EyeMakeup', 'Lips', 'Nails']"
p145
sS'display_title'
p146
S"'Beautfix'"
p147
sS'displayDB'
p148
S'<Table makeup (id,product,author,category,total_...ating,rating,body,image,date_posted,reviewCount)>'
p149
sS'subCategory'
p150
S"'Nails'"
p151
sS'display_title2'
p152
S"'MAKEUP'"
p153
sS'product_title'
p154
S"'L_Oreal_Colour_Riche_Nail_Femme_Fatale_Collection'"
p155
sS'product_id'
p156
S"''"
p157
sssS'traceback'
p158
S'Traceback (most recent call last):\n  File "gluon/restricted.py", line 224, in restricted\n  File "C:\\Users\\Matthew\\Desktop\\web2py\\applications\\Beautfix\\controllers/default.py", line 378, in <module>\n  File "gluon/globals.py", line 393, in <lambda>\n  File "C:\\Users\\Matthew\\Desktop\\web2py\\applications\\Beautfix\\controllers/default.py", line 289, in index\n    image = form.vars.image, product = form.vars.product.title())\nAttributeError: \'NoneType\' object has no attribute \'title\'\n'
p159
s.