(dp1
S'output'
p2
S"<type 'exceptions.IOError'> [Errno 22] invalid mode ('w') or filename: 'C:\\\\Users\\\\Matthew\\\\Desktop\\\\web2py\\\\applications\\\\Project\\\\databases\\\\c8b669d15150d7109e5f7ab36744a5b7_makeup.table'"
p3
sS'layer'
p4
S'C:\\Users\\Matthew\\Desktop\\web2py\\applications\\Project\\models\\tables.py'
p5
sS'code'
p6
S'# coding: utf8\nfrom datetime import datetime\nimport re\nimport unittest\n\ndef get_first_name():\n    author = \'Nobody\'\n    if auth.user:\n        author = auth.user.first_name\n    return author\n\n# Format for wiki links.\nRE_LINKS = re.compile(\'(<<)(.*?)(>>)\')\nCATEGORY = [\'Makeup\', \'SkinCare\', \'Fragrance\', \'Bath&Body\', \'Nails\', \'Hair\', \'Tools&Brushes\', \'Men\']\nMAKEUP_CATEGORY = [\'FaceMakeup\', \'BodyMakeup\', \'EyeMakeup\', \'Lips\', \'Nails\']\nSKIN_CATEGORY = [\'Wash\', \'Mosturizers\', \'Treatments\', \'Sunscreens\', \'Tanners\', \'Whiteners\', \'Other\']\nBATHBODY_CATEGORY = [\'LotionCreams\', \'BathShower\', \'Sun\', \'Other\' ]\nHAIR_CATEGORY = [\'StylingTools\', \'Treatment\', \'ShampooConditioner\', \'Other\']\nTOOLSBRUSHES_CATEGORY = [\'HairStyleTools\', \'MakeupBrushesApplicators\', \'Other\']\nMEN_CATEGORY = [\'Fragrance\', \'SkinCare\', \'Shaving\', \'Hair\', \'Other\']\nPRICE_RANGE = [\'$\', \'$$\', \'$$$\', \'$$$$\', \'$$$$$\']\nRATING = [\'*\', \'**\', \'***\', \'****\', \'*****\']\ndb.define_table(\'forum\',\n                Field(\'title\'),\n                Field(\'category\'),\n                Field(\'body\', \'text\'),\n                Field(\'date_posted\', \'datetime\'),\n                Field(\'author\'),\n                Field(\'likes\', writable=False)\n    )\n\ndb.define_table(\'post\',\n                Field(\'thread_id\', readable = False, writable = False),\n                Field(\'body\', \'text\'),\n                Field(\'date_posted\', \'datetime\'),\n                Field(\'author\'),\n    )\n\ndb.define_table(\'makeup\',\n                Field(\'product\', required = True),\n                Field(\'author\', default = get_first_name(), writable = False),\n                Field(\'category\', requires = IS_IN_SET(MAKEUP_CATEGORY, error_message = \'Field Required\')),\n                Field(\'price_range\', requires = IS_IN_SET(PRICE_RANGE, error_message = \'Choose price range\')),\n                Field(\'rating\', requires = IS_IN_SET(RATING, error_message = \'Choose a Rating\')),\n                Field(\'body\', \'text\'),\n                Field(\'image\', \'upload\'),\n                Field(\'date_posted\', \'datetime\', default = datetime.utcnow(), writable = False),\n    )\n\ndb.define_table(\'skinCare\',\n                Field(\'product\', required = True),\n                Field(\'author\', default = get_first_name(), writable = False),\n                Field(\'category\', requires = IS_IN_SET(SKIN_CATEGORY , error_message = \'Field Required\')),\n                Field(\'price_range\', requires = IS_IN_SET(PRICE_RANGE, error_message = \'Choose price range\')),\n                Field(\'rating\', requires = IS_IN_SET(RATING, error_message = \'Choose a Rating\')),\n                Field(\'body\', \'text\'),\n                Field(\'image\', \'upload\'), \n                Field(\'date_posted\', \'datetime\', default = datetime.utcnow(), writable = False),\n    )\n\ndb.define_table(\'bathBody\',\n                Field(\'product\', required = True),\n                Field(\'author\', default = get_first_name(), writable = False),\n                Field(\'category\', requires = IS_IN_SET(BATHBODY_CATEGORY , error_message = \'Field Required\')),\n                Field(\'price_range\', requires = IS_IN_SET(PRICE_RANGE, error_message = \'Choose price range\')),\n                Field(\'rating\', requires = IS_IN_SET(RATING, error_message = \'Choose a Rating\')),\n                Field(\'body\', \'text\'),\n                Field(\'image\', \'upload\'),\n                Field(\'date_posted\', \'datetime\', default = datetime.utcnow(), writable = False),\n    )\n\ndb.define_table(\'hair\',\n                Field(\'product\', required = True),\n                Field(\'author\', default = get_first_name(), writable = False),\n                Field(\'category\', requires = IS_IN_SET(HAIR_CATEGORY, error_message = \'Field Required\')),\n                Field(\'price_range\', requires = IS_IN_SET(PRICE_RANGE, error_message = \'Choose price range\')),\n                Field(\'rating\', requires = IS_IN_SET(RATING, error_message = \'Choose a Rating\')),\n                Field(\'body\', \'text\'),\n                Field(\'image\', \'upload\'),\n                Field(\'date_posted\', \'datetime\', default = datetime.utcnow(), writable = False),\n    )\n\ndb.define_table(\'toolsBrushes\',\n                Field(\'product\', required = True),\n                Field(\'author\', default = get_first_name(), writable = False),\n                Field(\'category\', requires = IS_IN_SET(TOOLSBRUSHES_CATEGORY, error_message = \'Field Required\')),\n                Field(\'price_range\', requires = IS_IN_SET(PRICE_RANGE, error_message = \'Choose price range\')),\n                Field(\'rating\', requires = IS_IN_SET(RATING, error_message = \'Choose a Rating\')),\n                Field(\'body\', \'text\'),\n                Field(\'image\', \'upload\'),\n                Field(\'date_posted\', \'datetime\', default = datetime.utcnow(), writable = False),\n    )\n\ndb.define_table(\'men\',\n                Field(\'product\', required = True),\n                Field(\'author\', default = get_first_name(), writable = False),\n                Field(\'category\', requires = IS_IN_SET(MEN_CATEGORY, error_message = \'Field Required\')),\n                Field(\'price_range\', requires = IS_IN_SET(PRICE_RANGE, error_message = \'Choose price range\')),\n                Field(\'rating\', requires = IS_IN_SET(RATING, error_message = \'Choose a Rating\')),\n                Field(\'body\', \'text\'),\n                Field(\'image\', \'upload\'),\n                Field(\'date_posted\', \'datetime\', default = datetime.utcnow(), writable = False),\n    )\n\ndb.define_table(\'comments\',\n                Field(\'category_id\'),\n                Field(\'body\', \'text\')\n    )\n\ndef create_wiki_links(s):\n    """This function replaces occurrences of \'<<polar bear>>\' in the \n    wikitext s with links to default/page/polar%20bear, so the name of the \n    page will be urlencoded and passed as argument 1."""\n    def makelink(match):\n        # The tile is what the user puts in\n        title = match.group(2).strip()\n        # The page, instead, is a normalized lowercase version.\n        page = title.lower()\n        return \'[[%s %s]]\' % (title, URL(\'default\', \'index\', args=[page]))\n    return re.sub(RE_LINKS, makelink, s)\n\ndef represent_wiki(s):\n    """Representation function for wiki pages.  This takes a string s\n    containing markup language, and renders it in HTML, also transforming\n    the <<page>> links to links to /default/index/page"""\n    return MARKMIN(create_wiki_links(s))\n\ndef represent_content(v, r):\n    """In case you need it: this is similar to represent_wiki, \n    but can be used in db.table.field.represent = represent_content"""\n    return represent_wiki(v)\n\n# We associate the wiki representation with the body of a revision.\ndb.forum.category.requires = IS_IN_SET(CATEGORY)\ndb.forum.category.default = \'\'\ndb.forum.category.required = True\ndb.forum.author.default = get_first_name()\ndb.forum.author.writable = False\ndb.forum.date_posted.writable = False\ndb.forum.date_posted.default = datetime.utcnow()\ndb.post.author.default = get_first_name()\ndb.post.author.writable = False\ndb.post.date_posted.writable = False\ndb.post.date_posted.default = datetime.utcnow()\ndb.forum.likes.default = 0\n'
p7
sS'snapshot'
p8
(dp9
S'exception'
p10
(dp11
S'__getslice__'
p12
S"<method-wrapper '__getslice__' of exceptions.IOError object>"
p13
sS'__str__'
p14
S"<method-wrapper '__str__' of exceptions.IOError object>"
p15
sS'__reduce__'
p16
S'<built-in method __reduce__ of exceptions.IOError object>'
p17
sS'__dict__'
p18
S'{}'
p19
sS'__sizeof__'
p20
S'<built-in method __sizeof__ of exceptions.IOError object>'
p21
sS'__init__'
p22
S"<method-wrapper '__init__' of exceptions.IOError object>"
p23
sS'__setattr__'
p24
S"<method-wrapper '__setattr__' of exceptions.IOError object>"
p25
sS'__reduce_ex__'
p26
S'<built-in method __reduce_ex__ of exceptions.IOError object>'
p27
sS'__new__'
p28
S'<built-in method __new__ of type object>'
p29
sS'errno'
p30
S'22'
p31
sS'__format__'
p32
S'<built-in method __format__ of exceptions.IOError object>'
p33
sS'__class__'
p34
S"<type 'exceptions.IOError'>"
p35
sS'filename'
p36
S"r'C:\\Users\\Matthew\\Desktop\\web2py\\applications\\Pro...ses\\c8b669d15150d7109e5f7ab36744a5b7_makeup.table'"
p37
sS'__doc__'
p38
S"'I/O operation failed.'"
p39
sS'__getitem__'
p40
S"<method-wrapper '__getitem__' of exceptions.IOError object>"
p41
sS'__setstate__'
p42
S'<built-in method __setstate__ of exceptions.IOError object>'
p43
sS'__getattribute__'
p44
S"<method-wrapper '__getattribute__' of exceptions.IOError object>"
p45
sS'args'
p46
S'(22, "invalid mode (\'w\') or filename")'
p47
sS'__subclasshook__'
p48
S'<built-in method __subclasshook__ of type object>'
p49
sS'__unicode__'
p50
S'<built-in method __unicode__ of exceptions.IOError object>'
p51
sS'strerror'
p52
S'"invalid mode (\'w\') or filename"'
p53
sS'__delattr__'
p54
S"<method-wrapper '__delattr__' of exceptions.IOError object>"
p55
sS'__repr__'
p56
S"<method-wrapper '__repr__' of exceptions.IOError object>"
p57
sS'__hash__'
p58
S"<method-wrapper '__hash__' of exceptions.IOError object>"
p59
ssS'evalue'
p60
S"[Errno 22] invalid mode ('w') or filename: 'C:\\\\Users\\\\Matthew\\\\Desktop\\\\web2py\\\\applications\\\\Project\\\\databases\\\\c8b669d15150d7109e5f7ab36744a5b7_makeup.table'"
p61
sS'request'
p62
cgluon.html
XML_unpickle
p63
(S's\x88j\x00\x00<div><table><tr><td style="font-weight:bold;vertical-align:top;">ajax</td><td style="vertical-align:top;">:</td><td><div>True</div></td></tr><tr><td style="font-weight:bold;vertical-align:top;">application</td><td style="vertical-align:top;">:</td><td><div>Project</div></td></tr><tr><td style="font-weight:bold;vertical-align:top;">args</td><td style="vertical-align:top;">:</td><td><div><table></table></div></td></tr><tr><td style="font-weight:bold;vertical-align:top;">cid</td><td style="vertical-align:top;">:</td><td><div>c100543911694</div></td></tr><tr><td style="font-weight:bold;vertical-align:top;">client</td><td style="vertical-align:top;">:</td><td><div>127.0.0.1</div></td></tr><tr><td style="font-weight:bold;vertical-align:top;">controller</td><td style="vertical-align:top;">:</td><td><div>appadmin</div></td></tr><tr><td style="font-weight:bold;vertical-align:top;">cookies</td><td style="vertical-align:top;">:</td><td><div><table><tr><td style="font-weight:bold;vertical-align:top;">session_id_admin</td><td style="vertical-align:top;">:</td><td><div>127.0.0.1-1ce03d65-35c2-444f-8a6c-037e496987d4<table><tr><td style="font-weight:bold;vertical-align:top;">comment</td><td style="vertical-align:top;">:</td><td><div></div></td></tr><tr><td style="font-weight:bold;vertical-align:top;">domain</td><td style="vertical-align:top;">:</td><td><div></div></td></tr><tr><td style="font-weight:bold;vertical-align:top;">expires</td><td style="vertical-align:top;">:</td><td><div></div></td></tr><tr><td style="font-weight:bold;vertical-align:top;">httponly</td><td style="vertical-align:top;">:</td><td><div></div></td></tr><tr><td style="font-weight:bold;vertical-align:top;">max-age</td><td style="vertical-align:top;">:</td><td><div></div></td></tr><tr><td style="font-weight:bold;vertical-align:top;">path</td><td style="vertical-align:top;">:</td><td><div></div></td></tr><tr><td style="font-weight:bold;vertical-align:top;">secure</td><td style="vertical-align:top;">:</td><td><div></div></td></tr><tr><td style="font-weight:bold;vertical-align:top;">version</td><td style="vertical-align:top;">:</td><td><div></div></td></tr></table></div></td></tr><tr><td style="font-weight:bold;vertical-align:top;">session_id_lol</td><td style="vertical-align:top;">:</td><td><div>127.0.0.1-994c63de-38e3-41cb-afbc-77138d0102e8<table><tr><td style="font-weight:bold;vertical-align:top;">comment</td><td style="vertical-align:top;">:</td><td><div></div></td></tr><tr><td style="font-weight:bold;vertical-align:top;">domain</td><td style="vertical-align:top;">:</td><td><div></div></td></tr><tr><td style="font-weight:bold;vertical-align:top;">expires</td><td style="vertical-align:top;">:</td><td><div></div></td></tr><tr><td style="font-weight:bold;vertical-align:top;">httponly</td><td style="vertical-align:top;">:</td><td><div></div></td></tr><tr><td style="font-weight:bold;vertical-align:top;">max-age</td><td style="vertical-align:top;">:</td><td><div></div></td></tr><tr><td style="font-weight:bold;vertical-align:top;">path</td><td style="vertical-align:top;">:</td><td><div></div></td></tr><tr><td style="font-weight:bold;vertical-align:top;">secure</td><td style="vertical-align:top;">:</td><td><div></div></td></tr><tr><td style="font-weight:bold;vertical-align:top;">version</td><td style="vertical-align:top;">:</td><td><div></div></td></tr></table></div></td></tr><tr><td style="font-weight:bold;vertical-align:top;">session_id_project</td><td style="vertical-align:top;">:</td><td><div>127.0.0.1-a3020716-6694-4c70-bbf5-e0f6d701bcc1<table><tr><td style="font-weight:bold;vertical-align:top;">comment</td><td style="vertical-align:top;">:</td><td><div></div></td></tr><tr><td style="font-weight:bold;vertical-align:top;">domain</td><td style="vertical-align:top;">:</td><td><div></div></td></tr><tr><td style="font-weight:bold;vertical-align:top;">expires</td><td style="vertical-align:top;">:</td><td><div></div></td></tr><tr><td style="font-weight:bold;vertical-align:top;">httponly</td><td style="vertical-align:top;">:</td><td><div></div></td></tr><tr><td style="font-weight:bold;vertical-align:top;">max-age</td><td style="vertical-align:top;">:</td><td><div></div></td></tr><tr><td style="font-weight:bold;vertical-align:top;">path</td><td style="vertical-align:top;">:</td><td><div></div></td></tr><tr><td style="font-weight:bold;vertical-align:top;">secure</td><td style="vertical-align:top;">:</td><td><div></div></td></tr><tr><td style="font-weight:bold;vertical-align:top;">version</td><td style="vertical-align:top;">:</td><td><div></div></td></tr></table></div></td></tr><tr><td style="font-weight:bold;vertical-align:top;">session_id_welcome</td><td style="vertical-align:top;">:</td><td><div>127.0.0.1-b7a3cc04-77b8-421a-ad02-ad072d2f20b0<table><tr><td style="font-weight:bold;vertical-align:top;">comment</td><td style="vertical-align:top;">:</td><td><div></div></td></tr><tr><td style="font-weight:bold;vertical-align:top;">domain</td><td style="vertical-align:top;">:</td><td><div></div></td></tr><tr><td style="font-weight:bold;vertical-align:top;">expires</td><td style="vertical-align:top;">:</td><td><div></div></td></tr><tr><td style="font-weight:bold;vertical-align:top;">httponly</td><td style="vertical-align:top;">:</td><td><div></div></td></tr><tr><td style="font-weight:bold;vertical-align:top;">max-age</td><td style="vertical-align:top;">:</td><td><div></div></td></tr><tr><td style="font-weight:bold;vertical-align:top;">path</td><td style="vertical-align:top;">:</td><td><div></div></td></tr><tr><td style="font-weight:bold;vertical-align:top;">secure</td><td style="vertical-align:top;">:</td><td><div></div></td></tr><tr><td style="font-weight:bold;vertical-align:top;">version</td><td style="vertical-align:top;">:</td><td><div></div></td></tr></table></div></td></tr></table></div></td></tr><tr><td style="font-weight:bold;vertical-align:top;">env</td><td style="vertical-align:top;">:</td><td><div><table><tr><td style="font-weight:bold;vertical-align:top;">HTTP_ACCEPT</td><td style="vertical-align:top;">:</td><td><div>*/*</div></td></tr><tr><td style="font-weight:bold;vertical-align:top;">HTTP_ACCEPT_ENCODING</td><td style="vertical-align:top;">:</td><td><div>gzip, deflate, sdch</div></td></tr><tr><td style="font-weight:bold;vertical-align:top;">HTTP_ACCEPT_LANGUAGE</td><td style="vertical-align:top;">:</td><td><div>en-US,en;q=0.8</div></td></tr><tr><td style="font-weight:bold;vertical-align:top;">HTTP_CONNECTION</td><td style="vertical-align:top;">:</td><td><div>keep-alive</div></td></tr><tr><td style="font-weight:bold;vertical-align:top;">HTTP_COOKIE</td><td style="vertical-align:top;">:</td><td><div>session_id_welcome=127.0.0.1-b7a3cc04-77b8-421a-ad02-ad072d2f20b0; session_id_project=127.0.0.1-a3020716-6694-4c70-bbf5-e0f6d701bcc1; session_id_admin=127.0.0.1-1ce03d65-35c2-444f-8a6c-037e496987d4; session_id_lol=127.0.0.1-994c63de-38e3-41cb-afbc-77138d0102e8</div></td></tr><tr><td style="font-weight:bold;vertical-align:top;">HTTP_HOST</td><td style="vertical-align:top;">:</td><td><div>127.0.0.1:8000</div></td></tr><tr><td style="font-weight:bold;vertical-align:top;">HTTP_REFERER</td><td style="vertical-align:top;">:</td><td><div>http://127.0.0.1:8000/admin/default/edit/Project/controllers/default.py?id=controllers__default__py</div></td></tr><tr><td style="font-weight:bold;vertical-align:top;">HTTP_USER_AGENT</td><td style="vertical-align:top;">:</td><td><div>Mozilla/5.0 (Windows NT 6.1; WOW64) AppleWebKit/537.36 (KHTML, like Gecko) Chrome/41.0.2272.89 Safari/537.36</div></td></tr><tr><td style="font-weight:bold;vertical-align:top;">HTTP_WEB2PY_COMPONENT_ELEMENT</td><td style="vertical-align:top;">:</td><td><div>c100543911694</div></td></tr><tr><td style="font-weight:bold;vertical-align:top;">HTTP_WEB2PY_COMPONENT_LOCATION</td><td style="vertical-align:top;">:</td><td><div>http://127.0.0.1:8000/admin/default/edit/Project/controllers/default.py?id=controllers__default__py#projectmodelstablespy</div></td></tr><tr><td style="font-weight:bold;vertical-align:top;">HTTP_X_REQUESTED_WITH</td><td style="vertical-align:top;">:</td><td><div>XMLHttpRequest</div></td></tr><tr><td style="font-weight:bold;vertical-align:top;">PATH_INFO</td><td style="vertical-align:top;">:</td><td><div>/Project/appadmin/hooks</div></td></tr><tr><td style="font-weight:bold;vertical-align:top;">QUERY_STRING</td><td style="vertical-align:top;">:</td><td><div></div></td></tr><tr><td style="font-weight:bold;vertical-align:top;">REMOTE_ADDR</td><td style="vertical-align:top;">:</td><td><div>127.0.0.1</div></td></tr><tr><td style="font-weight:bold;vertical-align:top;">REMOTE_PORT</td><td style="vertical-align:top;">:</td><td><div>57491</div></td></tr><tr><td style="font-weight:bold;vertical-align:top;">REQUEST_METHOD</td><td style="vertical-align:top;">:</td><td><div>GET</div></td></tr><tr><td style="font-weight:bold;vertical-align:top;">SCRIPT_NAME</td><td style="vertical-align:top;">:</td><td><div></div></td></tr><tr><td style="font-weight:bold;vertical-align:top;">SERVER_NAME</td><td style="vertical-align:top;">:</td><td><div>Matthew-PC</div></td></tr><tr><td style="font-weight:bold;vertical-align:top;">SERVER_PORT</td><td style="vertical-align:top;">:</td><td><div>8000</div></td></tr><tr><td style="font-weight:bold;vertical-align:top;">SERVER_PROTOCOL</td><td style="vertical-align:top;">:</td><td><div>HTTP/1.1</div></td></tr><tr><td style="font-weight:bold;vertical-align:top;">SERVER_SOFTWARE</td><td style="vertical-align:top;">:</td><td><div>Rocket 1.2.6</div></td></tr><tr><td style="font-weight:bold;vertical-align:top;">app_folders</td><td style="vertical-align:top;">:</td><td><div>set([&#x27;C:\\\\Users\\\\Matthew\\\\Desktop\\\\web2py\\\\applications\\\\admin\\\\&#x27;, &#x27;C:\\\\Users\\\\Matthew\\\\Desktop\\\\web2py\\\\applications\\\\welcome\\\\&#x27;, &#x27;C:\\\\Users\\\\Matthew\\\\Desktop\\\\web2py\\\\applications\\\\Project\\\\&#x27;, &#x27;C:\\\\Users\\\\Matthew\\\\Desktop\\\\web2py\\\\applications\\\\lol\\\\&#x27;])</div></td></tr><tr><td style="font-weight:bold;vertical-align:top;">applications_parent</td><td style="vertical-align:top;">:</td><td><div>C:\\Users\\Matthew\\Desktop\\web2py</div></td></tr><tr><td style="font-weight:bold;vertical-align:top;">cmd_args</td><td style="vertical-align:top;">:</td><td><div><table></table></div></td></tr><tr><td style="font-weight:bold;vertical-align:top;">cmd_options</td><td style="vertical-align:top;">:</td><td><div>&lt;Values at 0x36155d0: {&#x27;verbose&#x27;: False, &#x27;ip&#x27;: &#x27;127.0.0.1&#x27;, &#x27;debuglevel&#x27;: 30, &#x27;with_scheduler&#x27;: False, &#x27;ips&#x27;: [], &#x27;shutdown_timeout&#x27;: 5, &#x27;taskbar&#x27;: False, &#x27;with_coverage&#x27;: False, &#x27;scheduler_groups&#x27;: None, &#x27;port&#x27;: 8000, &#x27;maxthreads&#x27;: None, &#x27;softcron&#x27;: False, &#x27;server_name&#x27;: &#x27;Matthew-PC&#x27;, &#x27;bpython&#x27;: False, &#x27;nogui&#x27;: False, &#x27;pid_filename&#x27;: &#x27;httpserver.pid&#x27;, &#x27;extcron&#x27;: False, &#x27;runcron&#x27;: False, &#x27;run_system_tests&#x27;: False, &#x27;test&#x27;: None, &#x27;folder&#x27;: &#x27;C:\\\\Users\\\\Matthew\\\\Desktop\\\\web2py&#x27;, &#x27;config&#x27;: &#x27;&#x27;, &#x27;minthreads&#x27;: None, &#x27;shell&#x27;: None, &#x27;run&#x27;: &#x27;&#x27;, &#x27;log_filename&#x27;: &#x27;httpserver.log&#x27;, &#x27;profiler_dir&#x27;: None, &#x27;args&#x27;: [&#x27;&#x27;], &#x27;socket_timeout&#x27;: 5, &#x27;ssl_ca_certificate&#x27;: None, &#x27;scheduler&#x27;: None, &#x27;interfaces&#x27;: None, &#x27;ssl_private_key&#x27;: &#x27;&#x27;, &#x27;gae&#x27;: None, &#x27;password&#x27;: &#x27;&lt;ask&gt;&#x27;, &#x27;request_queue_size&#x27;: 5, &#x27;ssl_certificate&#x27;: &#x27;&#x27;, &#x27;cronjob&#x27;: False, &#x27;numthreads&#x27;: None, &#x27;quiet&#x27;: False, &#x27;import_models&#x27;: False, &#x27;timeout&#x27;: 10, &#x27;plain&#x27;: False, &#x27;nobanner&#x27;: False}&gt;</div></td></tr><tr><td style="font-weight:bold;vertical-align:top;">db_sessions</td><td style="vertical-align:top;">:</td><td><div>set([])</div></td></tr><tr><td style="font-weight:bold;vertical-align:top;">debugging</td><td style="vertical-align:top;">:</td><td><div>True</div></td></tr><tr><td style="font-weight:bold;vertical-align:top;">gluon_parent</td><td style="vertical-align:top;">:</td><td><div>C:\\Users\\Matthew\\Desktop\\web2py</div></td></tr><tr><td style="font-weight:bold;vertical-align:top;">http_accept</td><td style="vertical-align:top;">:</td><td><div>*/*</div></td></tr><tr><td style="font-weight:bold;vertical-align:top;">http_accept_encoding</td><td style="vertical-align:top;">:</td><td><div>gzip, deflate, sdch</div></td></tr><tr><td style="font-weight:bold;vertical-align:top;">http_accept_language</td><td style="vertical-align:top;">:</td><td><div>en-US,en;q=0.8</div></td></tr><tr><td style="font-weight:bold;vertical-align:top;">http_connection</td><td style="vertical-align:top;">:</td><td><div>keep-alive</div></td></tr><tr><td style="font-weight:bold;vertical-align:top;">http_cookie</td><td style="vertical-align:top;">:</td><td><div>session_id_welcome=127.0.0.1-b7a3cc04-77b8-421a-ad02-ad072d2f20b0; session_id_project=127.0.0.1-a3020716-6694-4c70-bbf5-e0f6d701bcc1; session_id_admin=127.0.0.1-1ce03d65-35c2-444f-8a6c-037e496987d4; session_id_lol=127.0.0.1-994c63de-38e3-41cb-afbc-77138d0102e8</div></td></tr><tr><td style="font-weight:bold;vertical-align:top;">http_host</td><td style="vertical-align:top;">:</td><td><div>127.0.0.1:8000</div></td></tr><tr><td style="font-weight:bold;vertical-align:top;">http_referer</td><td style="vertical-align:top;">:</td><td><div>http://127.0.0.1:8000/admin/default/edit/Project/controllers/default.py?id=controllers__default__py</div></td></tr><tr><td style="font-weight:bold;vertical-align:top;">http_user_agent</td><td style="vertical-align:top;">:</td><td><div>Mozilla/5.0 (Windows NT 6.1; WOW64) AppleWebKit/537.36 (KHTML, like Gecko) Chrome/41.0.2272.89 Safari/537.36</div></td></tr><tr><td style="font-weight:bold;vertical-align:top;">http_web2py_component_element</td><td style="vertical-align:top;">:</td><td><div>c100543911694</div></td></tr><tr><td style="font-weight:bold;vertical-align:top;">http_web2py_component_location</td><td style="vertical-align:top;">:</td><td><div>http://127.0.0.1:8000/admin/default/edit/Project/controllers/default.py?id=controllers__default__py#projectmodelstablespy</div></td></tr><tr><td style="font-weight:bold;vertical-align:top;">http_x_requested_with</td><td style="vertical-align:top;">:</td><td><div>XMLHttpRequest</div></td></tr><tr><td style="font-weight:bold;vertical-align:top;">is_jython</td><td style="vertical-align:top;">:</td><td><div>False</div></td></tr><tr><td style="font-weight:bold;vertical-align:top;">is_pypy</td><td style="vertical-align:top;">:</td><td><div>False</div></td></tr><tr><td style="font-weight:bold;vertical-align:top;">is_source</td><td style="vertical-align:top;">:</td><td><div>False</div></td></tr><tr><td style="font-weight:bold;vertical-align:top;">local_hosts</td><td style="vertical-align:top;">:</td><td><div><table><tr><td><div>Matthew-PC.ucsc.edu</div></td></tr><tr><td><div>fd6d:fd63:adf6:0:fd9f:7bbb:a3c:3517</div></td></tr><tr><td><div>fd6d:fd63:adf6:0:a4b0:1e47:fbfd:9389</div></td></tr><tr><td><div>fe80::a4b0:1e47:fbfd:9389%11</div></td></tr><tr><td><div>::1</div></td></tr><tr><td><div>::ffff:127.0.0.1</div></td></tr><tr><td><div>25.37.196.17</div></td></tr><tr><td><div>2620:9b::1925:c411</div></td></tr><tr><td><div>127.0.0.1</div></td></tr><tr><td><div>192.168.1.142</div></td></tr><tr><td><div>fe80::200:5efe:25.37.196.17%25</div></td></tr><tr><td><div>192.168.56.1</div></td></tr><tr><td><div>fe80::295c:65a2:cbe5:923a%22</div></td></tr><tr><td><div>fe80::292d:4a02:9b26:52b5%19</div></td></tr><tr><td><div>Matthew-PC</div></td></tr><tr><td><div>fe80::5efe:192.168.1.142%24</div></td></tr></table></div></td></tr><tr><td style="font-weight:bold;vertical-align:top;">path_info</td><td style="vertical-align:top;">:</td><td><div>/Project/appadmin/hooks</div></td></tr><tr><td style="font-weight:bold;vertical-align:top;">query_string</td><td style="vertical-align:top;">:</td><td><div></div></td></tr><tr><td style="font-weight:bold;vertical-align:top;">remote_addr</td><td style="vertical-align:top;">:</td><td><div>127.0.0.1</div></td></tr><tr><td style="font-weight:bold;vertical-align:top;">remote_port</td><td style="vertical-align:top;">:</td><td><div>57491</div></td></tr><tr><td style="font-weight:bold;vertical-align:top;">request_method</td><td style="vertical-align:top;">:</td><td><div>GET</div></td></tr><tr><td style="font-weight:bold;vertical-align:top;">request_uri</td><td style="vertical-align:top;">:</td><td><div>/Project/appadmin/hooks</div></td></tr><tr><td style="font-weight:bold;vertical-align:top;">script_name</td><td style="vertical-align:top;">:</td><td><div></div></td></tr><tr><td style="font-weight:bold;vertical-align:top;">server_name</td><td style="vertical-align:top;">:</td><td><div>Matthew-PC</div></td></tr><tr><td style="font-weight:bold;vertical-align:top;">server_port</td><td style="vertical-align:top;">:</td><td><div>8000</div></td></tr><tr><td style="font-weight:bold;vertical-align:top;">server_protocol</td><td style="vertical-align:top;">:</td><td><div>HTTP/1.1</div></td></tr><tr><td style="font-weight:bold;vertical-align:top;">server_software</td><td style="vertical-align:top;">:</td><td><div>Rocket 1.2.6</div></td></tr><tr><td style="font-weight:bold;vertical-align:top;">web2py_path</td><td style="vertical-align:top;">:</td><td><div>C:\\Users\\Matthew\\Desktop\\web2py</div></td></tr><tr><td style="font-weight:bold;vertical-align:top;">web2py_version</td><td style="vertical-align:top;">:</td><td><div>2.9.12-stable+timestamp.2015.01.17.06.11.03</div></td></tr><tr><td style="font-weight:bold;vertical-align:top;">wsgi.errors</td><td style="vertical-align:top;">:</td><td><div>&lt;open file &#x27;&lt;stderr&gt;&#x27;, mode &#x27;w&#x27; at 0x004560D0&gt;</div></td></tr><tr><td style="font-weight:bold;vertical-align:top;">wsgi.file_wrapper</td><td style="vertical-align:top;">:</td><td><div>&lt;class wsgiref.util.FileWrapper at 0x023EDAE8&gt;</div></td></tr><tr><td style="font-weight:bold;vertical-align:top;">wsgi.input</td><td style="vertical-align:top;">:</td><td><div>&lt;socket._fileobject object at 0x08AA9730&gt;</div></td></tr><tr><td style="font-weight:bold;vertical-align:top;">wsgi.multiprocess</td><td style="vertical-align:top;">:</td><td><div>False</div></td></tr><tr><td style="font-weight:bold;vertical-align:top;">wsgi.multithread</td><td style="vertical-align:top;">:</td><td><div>True</div></td></tr><tr><td style="font-weight:bold;vertical-align:top;">wsgi.run_once</td><td style="vertical-align:top;">:</td><td><div>False</div></td></tr><tr><td style="font-weight:bold;vertical-align:top;">wsgi.url_scheme</td><td style="vertical-align:top;">:</td><td><div>http</div></td></tr><tr><td style="font-weight:bold;vertical-align:top;">wsgi.version</td><td style="vertical-align:top;">:</td><td><div><table><tr><td><div>1</div></td></tr><tr><td><div>0</div></td></tr></table></div></td></tr><tr><td style="font-weight:bold;vertical-align:top;">wsgi_errors</td><td style="vertical-align:top;">:</td><td><div>&lt;open file &#x27;&lt;stderr&gt;&#x27;, mode &#x27;w&#x27; at 0x004560D0&gt;</div></td></tr><tr><td style="font-weight:bold;vertical-align:top;">wsgi_file_wrapper</td><td style="vertical-align:top;">:</td><td><div>&lt;class wsgiref.util.FileWrapper at 0x023EDAE8&gt;</div></td></tr><tr><td style="font-weight:bold;vertical-align:top;">wsgi_input</td><td style="vertical-align:top;">:</td><td><div>&lt;socket._fileobject object at 0x08AA9730&gt;</div></td></tr><tr><td style="font-weight:bold;vertical-align:top;">wsgi_multiprocess</td><td style="vertical-align:top;">:</td><td><div>False</div></td></tr><tr><td style="font-weight:bold;vertical-align:top;">wsgi_multithread</td><td style="vertical-align:top;">:</td><td><div>True</div></td></tr><tr><td style="font-weight:bold;vertical-align:top;">wsgi_run_once</td><td style="vertical-align:top;">:</td><td><div>False</div></td></tr><tr><td style="font-weight:bold;vertical-align:top;">wsgi_url_scheme</td><td style="vertical-align:top;">:</td><td><div>http</div></td></tr><tr><td style="font-weight:bold;vertical-align:top;">wsgi_version</td><td style="vertical-align:top;">:</td><td><div><table><tr><td><div>1</div></td></tr><tr><td><div>0</div></td></tr></table></div></td></tr></table></div></td></tr><tr><td style="font-weight:bold;vertical-align:top;">extension</td><td style="vertical-align:top;">:</td><td><div>html</div></td></tr><tr><td style="font-weight:bold;vertical-align:top;">folder</td><td style="vertical-align:top;">:</td><td><div>C:\\Users\\Matthew\\Desktop\\web2py\\applications\\Project\\</div></td></tr><tr><td style="font-weight:bold;vertical-align:top;">function</td><td style="vertical-align:top;">:</td><td><div>hooks</div></td></tr><tr><td style="font-weight:bold;vertical-align:top;">global_settings</td><td style="vertical-align:top;">:</td><td><div><table><tr><td style="font-weight:bold;vertical-align:top;">app_folders</td><td style="vertical-align:top;">:</td><td><div>set([&#x27;C:\\\\Users\\\\Matthew\\\\Desktop\\\\web2py\\\\applications\\\\admin\\\\&#x27;, &#x27;C:\\\\Users\\\\Matthew\\\\Desktop\\\\web2py\\\\applications\\\\welcome\\\\&#x27;, &#x27;C:\\\\Users\\\\Matthew\\\\Desktop\\\\web2py\\\\applications\\\\Project\\\\&#x27;, &#x27;C:\\\\Users\\\\Matthew\\\\Desktop\\\\web2py\\\\applications\\\\lol\\\\&#x27;])</div></td></tr><tr><td style="font-weight:bold;vertical-align:top;">applications_parent</td><td style="vertical-align:top;">:</td><td><div>C:\\Users\\Matthew\\Desktop\\web2py</div></td></tr><tr><td style="font-weight:bold;vertical-align:top;">cmd_args</td><td style="vertical-align:top;">:</td><td><div><table></table></div></td></tr><tr><td style="font-weight:bold;vertical-align:top;">cmd_options</td><td style="vertical-align:top;">:</td><td><div>&lt;Values at 0x36155d0: {&#x27;verbose&#x27;: False, &#x27;ip&#x27;: &#x27;127.0.0.1&#x27;, &#x27;debuglevel&#x27;: 30, &#x27;with_scheduler&#x27;: False, &#x27;ips&#x27;: [], &#x27;shutdown_timeout&#x27;: 5, &#x27;taskbar&#x27;: False, &#x27;with_coverage&#x27;: False, &#x27;scheduler_groups&#x27;: None, &#x27;port&#x27;: 8000, &#x27;maxthreads&#x27;: None, &#x27;softcron&#x27;: False, &#x27;server_name&#x27;: &#x27;Matthew-PC&#x27;, &#x27;bpython&#x27;: False, &#x27;nogui&#x27;: False, &#x27;pid_filename&#x27;: &#x27;httpserver.pid&#x27;, &#x27;extcron&#x27;: False, &#x27;runcron&#x27;: False, &#x27;run_system_tests&#x27;: False, &#x27;test&#x27;: None, &#x27;folder&#x27;: &#x27;C:\\\\Users\\\\Matthew\\\\Desktop\\\\web2py&#x27;, &#x27;config&#x27;: &#x27;&#x27;, &#x27;minthreads&#x27;: None, &#x27;shell&#x27;: None, &#x27;run&#x27;: &#x27;&#x27;, &#x27;log_filename&#x27;: &#x27;httpserver.log&#x27;, &#x27;profiler_dir&#x27;: None, &#x27;args&#x27;: [&#x27;&#x27;], &#x27;socket_timeout&#x27;: 5, &#x27;ssl_ca_certificate&#x27;: None, &#x27;scheduler&#x27;: None, &#x27;interfaces&#x27;: None, &#x27;ssl_private_key&#x27;: &#x27;&#x27;, &#x27;gae&#x27;: None, &#x27;password&#x27;: &#x27;&lt;ask&gt;&#x27;, &#x27;request_queue_size&#x27;: 5, &#x27;ssl_certificate&#x27;: &#x27;&#x27;, &#x27;cronjob&#x27;: False, &#x27;numthreads&#x27;: None, &#x27;quiet&#x27;: False, &#x27;import_models&#x27;: False, &#x27;timeout&#x27;: 10, &#x27;plain&#x27;: False, &#x27;nobanner&#x27;: False}&gt;</div></td></tr><tr><td style="font-weight:bold;vertical-align:top;">db_sessions</td><td style="vertical-align:top;">:</td><td><div>set([])</div></td></tr><tr><td style="font-weight:bold;vertical-align:top;">debugging</td><td style="vertical-align:top;">:</td><td><div>True</div></td></tr><tr><td style="font-weight:bold;vertical-align:top;">gluon_parent</td><td style="vertical-align:top;">:</td><td><div>C:\\Users\\Matthew\\Desktop\\web2py</div></td></tr><tr><td style="font-weight:bold;vertical-align:top;">is_jython</td><td style="vertical-align:top;">:</td><td><div>False</div></td></tr><tr><td style="font-weight:bold;vertical-align:top;">is_pypy</td><td style="vertical-align:top;">:</td><td><div>False</div></td></tr><tr><td style="font-weight:bold;vertical-align:top;">is_source</td><td style="vertical-align:top;">:</td><td><div>False</div></td></tr><tr><td style="font-weight:bold;vertical-align:top;">local_hosts</td><td style="vertical-align:top;">:</td><td><div><table><tr><td><div>Matthew-PC.ucsc.edu</div></td></tr><tr><td><div>fd6d:fd63:adf6:0:fd9f:7bbb:a3c:3517</div></td></tr><tr><td><div>fd6d:fd63:adf6:0:a4b0:1e47:fbfd:9389</div></td></tr><tr><td><div>fe80::a4b0:1e47:fbfd:9389%11</div></td></tr><tr><td><div>::1</div></td></tr><tr><td><div>::ffff:127.0.0.1</div></td></tr><tr><td><div>25.37.196.17</div></td></tr><tr><td><div>2620:9b::1925:c411</div></td></tr><tr><td><div>127.0.0.1</div></td></tr><tr><td><div>192.168.1.142</div></td></tr><tr><td><div>fe80::200:5efe:25.37.196.17%25</div></td></tr><tr><td><div>192.168.56.1</div></td></tr><tr><td><div>fe80::295c:65a2:cbe5:923a%22</div></td></tr><tr><td><div>fe80::292d:4a02:9b26:52b5%19</div></td></tr><tr><td><div>Matthew-PC</div></td></tr><tr><td><div>fe80::5efe:192.168.1.142%24</div></td></tr></table></div></td></tr><tr><td style="font-weight:bold;vertical-align:top;">web2py_version</td><td style="vertical-align:top;">:</td><td><div>2.9.12-stable+timestamp.2015.01.17.06.11.03</div></td></tr></table></div></td></tr><tr><td style="font-weight:bold;vertical-align:top;">is_https</td><td style="vertical-align:top;">:</td><td><div>False</div></td></tr><tr><td style="font-weight:bold;vertical-align:top;">is_local</td><td style="vertical-align:top;">:</td><td><div>True</div></td></tr><tr><td style="font-weight:bold;vertical-align:top;">is_restful</td><td style="vertical-align:top;">:</td><td><div>False</div></td></tr><tr><td style="font-weight:bold;vertical-align:top;">is_sheduler</td><td style="vertical-align:top;">:</td><td><div>None</div></td></tr><tr><td style="font-weight:bold;vertical-align:top;">is_shell</td><td style="vertical-align:top;">:</td><td><div>None</div></td></tr><tr><td style="font-weight:bold;vertical-align:top;">now</td><td style="vertical-align:top;">:</td><td><div>datetime.datetime(2015, 3, 15, 14, 46, 19, 20000)</div></td></tr><tr><td style="font-weight:bold;vertical-align:top;">raw_args</td><td style="vertical-align:top;">:</td><td><div></div></td></tr><tr><td style="font-weight:bold;vertical-align:top;">raw_extension</td><td style="vertical-align:top;">:</td><td><div>None</div></td></tr><tr><td style="font-weight:bold;vertical-align:top;">url</td><td style="vertical-align:top;">:</td><td><div>/Project/appadmin/hooks</div></td></tr><tr><td style="font-weight:bold;vertical-align:top;">utcnow</td><td style="vertical-align:top;">:</td><td><div>datetime.datetime(2015, 3, 15, 21, 46, 19, 20000)</div></td></tr><tr><td style="font-weight:bold;vertical-align:top;">uuid</td><td style="vertical-align:top;">:</td><td><div>Project/127.0.0.1.2015-03-15.14-46-19.35ac54b7-472c-493d-8f7e-83990bc57557</div></td></tr><tr><td style="font-weight:bold;vertical-align:top;">wsgi</td><td style="vertical-align:top;">:</td><td><div>&lt;gluon.main.LazyWSGI object at 0x08F58850&gt;</div></td></tr></table></div>'
tRp64
sS'frames'
p65
(lp66
(dp67
S'file'
p68
S'C:\\Users\\Matthew\\Desktop\\web2py\\gluon\\restricted.py'
p69
sS'dump'
p70
(dp71
sS'lnum'
p72
I224
sS'lines'
p73
(dp74
sS'call'
p75
S"(code='# coding: utf8\\nfrom datetime import datetime\\nimp...t = datetime.utcnow()\\ndb.forum.likes.default = 0\\n', environment={'A': <class 'gluon.html.A'>, 'ANY_OF': <class 'gluon.validators.ANY_OF'>, 'ASSIGNJS': <function ASSIGNJS>, 'Auth': <class 'gluon.tools.Auth'>, 'B': <class 'gluon.html.B'>, 'BATHBODY_CATEGORY': ['LotionCreams', 'BathShower', 'Sun', 'Other'], 'BEAUTIFY': <class 'gluon.html.BEAUTIFY'>, 'BODY': <class 'gluon.html.BODY'>, 'BR': <class 'gluon.html.BR'>, 'BUTTON': <class 'gluon.html.BUTTON'>, ...}, layer=r'C:\\Users\\Matthew\\Desktop\\web2py\\applications\\Project\\models\\tables.py')"
p76
sS'func'
p77
S'restricted'
p78
sa(dp79
g68
S'C:\\Users\\Matthew\\Desktop\\web2py\\applications\\Project\\models\\tables.py'
p80
sg70
(dp81
S'builtinFalse'
p82
S'False'
p83
sS'default'
p84
S'undefined'
p85
sS'datetime'
p86
S"<type 'datetime.datetime'>"
p87
sS'writable'
p88
g85
sS'Field'
p89
S"<class 'gluon.dal.objects.Field'>"
p90
sS'datetime.utcnow'
p91
S'<built-in method utcnow of type object>'
p92
ssg72
I47
sg73
(dp93
I42
S"                Field('category', requires = IS_IN_SET(MAKEUP_CATEGORY, error_message = 'Field Required')),"
p94
sI43
S"                Field('price_range', requires = IS_IN_SET(PRICE_RANGE, error_message = 'Choose price range')),"
p95
sI44
S"                Field('rating', requires = IS_IN_SET(RATING, error_message = 'Choose a Rating')),"
p96
sI45
S"                Field('body', 'text'),"
p97
sI46
S"                Field('image', 'upload'),"
p98
sI47
S"                Field('date_posted', 'datetime', default = datetime.utcnow(), writable = False),"
p99
sI48
S'    )'
p100
sI49
S''
sI50
S"db.define_table('skinCare',"
p101
sI51
S"                Field('product', required = True),"
p102
ssg75
S'()'
p103
sg77
S'<module>'
p104
sa(dp105
g68
S'C:\\Users\\Matthew\\Desktop\\web2py\\gluon\\dal\\base.py'
p106
sg70
(dp107
sg72
I787
sg73
(dp108
sg75
S'(self=<DAL uri="sqlite://storage.sqlite">, tablename=\'makeup\', *fields=(<gluon.dal.objects.Field object>, <gluon.dal.objects.Field object>, <gluon.dal.objects.Field object>, <gluon.dal.objects.Field object>, <gluon.dal.objects.Field object>, <gluon.dal.objects.Field object>, <gluon.dal.objects.Field object>, <gluon.dal.objects.Field object>), **args={})'
p109
sg77
S'define_table'
p110
sa(dp111
g68
S'C:\\Users\\Matthew\\Desktop\\web2py\\gluon\\dal\\base.py'
p112
sg70
(dp113
sg72
I824
sg73
(dp114
sg75
S'(self=<DAL uri="sqlite://storage.sqlite">, tablename=\'makeup\', *fields=(<gluon.dal.objects.Field object>, <gluon.dal.objects.Field object>, <gluon.dal.objects.Field object>, <gluon.dal.objects.Field object>, <gluon.dal.objects.Field object>, <gluon.dal.objects.Field object>, <gluon.dal.objects.Field object>, <gluon.dal.objects.Field object>), **args={})'
p115
sg77
S'lazy_define_table'
p116
sa(dp117
g68
S'C:\\Users\\Matthew\\Desktop\\web2py\\gluon\\dal\\adapters\\base.py'
p118
sg70
(dp119
sg72
I487
sg73
(dp120
sg75
S'(self=<gluon.dal.adapters.sqlite.SQLiteAdapter object>, table=<Table makeup (id,product,author,category,price_range,rating,body,image,date_posted)>, migrate=True, fake_migrate=False, polymodel=None)'
p121
sg77
S'create_table'
p122
sa(dp123
g68
S'C:\\Users\\Matthew\\Desktop\\web2py\\gluon\\dal\\adapters\\base.py'
p124
sg70
(dp125
sg72
I612
sg73
(dp126
sg75
S"(self=<gluon.dal.adapters.sqlite.SQLiteAdapter object>, table=<Table makeup (id,product,author,category,price_range,rating,body,image,date_posted)>, sql_fields={'author': {'length': 512, 'notnull': False, 'sortable': 3, 'sql': 'CHAR(512)', 'type': 'string', 'unique': False}, 'body': {'length': 32768, 'notnull': False, 'sortable': 7, 'sql': 'TEXT', 'type': 'text', 'unique': False}, 'category': {'length': 512, 'notnull': False, 'sortable': 4, 'sql': 'CHAR(512)', 'type': 'string', 'unique': False}, 'date_posted': {'length': 512, 'notnull': False, 'sortable': 9, 'sql': 'TIMESTAMP', 'type': 'datetime', 'unique': False}, 'id': {'length': 512, 'notnull': False, 'sortable': 1, 'sql': 'INTEGER PRIMARY KEY AUTOINCREMENT', 'type': 'id', 'unique': False}, 'image': {'length': 512, 'notnull': False, 'sortable': 8, 'sql': 'CHAR(512)', 'type': 'upload', 'unique': False}, 'price_range': {'length': 512, 'notnull': False, 'sortable': 5, 'sql': 'CHAR(512)', 'type': 'string', 'unique': False}, 'product': {'length': 512, 'notnull': False, 'sortable': 2, 'sql': 'CHAR(512)', 'type': 'string', 'unique': False}, 'rating': {'length': 512, 'notnull': False, 'sortable': 6, 'sql': 'CHAR(512)', 'type': 'string', 'unique': False}}, sql_fields_old={'author': {'length': 512, 'notnull': False, 'sortable': 3, 'sql': 'CHAR(512)', 'type': 'string', 'unique': False}, 'body': {'length': 32768, 'notnull': False, 'sortable': 7, 'sql': 'TEXT', 'type': 'text', 'unique': False}, 'category': {'length': 512, 'notnull': False, 'sortable': 4, 'sql': 'CHAR(512)', 'type': 'string', 'unique': False}, 'category_id': {'length': 512L, 'notnull': 0L, 'sortable': 2L, 'sql': 'CHAR(512)', 'type': 'string', 'unique': 0L}, 'date_posted': {'length': 512, 'notnull': False, 'sortable': 9, 'sql': 'TIMESTAMP', 'type': 'datetime', 'unique': False}, 'id': {'length': 512, 'notnull': False, 'sortable': 1, 'sql': 'INTEGER PRIMARY KEY AUTOINCREMENT', 'type': 'id', 'unique': False}, 'image': {'length': 512, 'notnull': False, 'sortable': 8, 'sql': 'CHAR(512)', 'type': 'upload', 'unique': False}, 'price_range': {'length': 512, 'notnull': False, 'sortable': 5, 'sql': 'CHAR(512)', 'type': 'string', 'unique': False}, 'product': {'length': 512, 'notnull': False, 'sortable': 2, 'sql': 'CHAR(512)', 'type': 'string', 'unique': False}, 'rating': {'length': 512, 'notnull': False, 'sortable': 6, 'sql': 'CHAR(512)', 'type': 'string', 'unique': False}, ...}, sql_fields_aux={'author': {'sql': 'CHAR(512)'}, 'body': {'sql': 'TEXT'}, 'category': {'sql': 'CHAR(512)'}, 'date_posted': {'sql': 'TIMESTAMP'}, 'id': {'sql': 'INTEGER PRIMARY KEY AUTOINCREMENT'}, 'image': {'sql': 'CHAR(512)'}, 'price_range': {'sql': 'CHAR(512)'}, 'product': {'sql': 'CHAR(512)'}, 'rating': {'sql': 'CHAR(512)'}}, logfile=None, fake_migrate=False)"
p127
sg77
S'migrate_table'
p128
sa(dp129
g68
S'C:\\Users\\Matthew\\Desktop\\web2py\\gluon\\dal\\adapters\\base.py'
p130
sg70
(dp131
sg72
I620
sg73
(dp132
sg75
S"(self=<gluon.dal.adapters.sqlite.SQLiteAdapter object>, table=<Table makeup (id,product,author,category,price_range,rating,body,image,date_posted)>, sql_fields_current={'author': {'length': 512, 'notnull': False, 'sortable': 3, 'sql': 'CHAR(512)', 'type': 'string', 'unique': False}, 'body': {'length': 32768, 'notnull': False, 'sortable': 7, 'sql': 'TEXT', 'type': 'text', 'unique': False}, 'category': {'length': 512, 'notnull': False, 'sortable': 4, 'sql': 'CHAR(512)', 'type': 'string', 'unique': False}, 'category_id': {'length': 512L, 'notnull': 0L, 'sortable': 2L, 'sql': 'CHAR(512)', 'type': 'string', 'unique': 0L}, 'date_posted': {'length': 512, 'notnull': False, 'sortable': 9, 'sql': 'TIMESTAMP', 'type': 'datetime', 'unique': False}, 'id': {'length': 512, 'notnull': False, 'sortable': 1, 'sql': 'INTEGER PRIMARY KEY AUTOINCREMENT', 'type': 'id', 'unique': False}, 'image': {'length': 512, 'notnull': False, 'sortable': 8, 'sql': 'CHAR(512)', 'type': 'upload', 'unique': False}, 'price_range': {'length': 512, 'notnull': False, 'sortable': 5, 'sql': 'CHAR(512)', 'type': 'string', 'unique': False}, 'product': {'length': 512, 'notnull': False, 'sortable': 2, 'sql': 'CHAR(512)', 'type': 'string', 'unique': False}, 'rating': {'length': 512, 'notnull': False, 'sortable': 6, 'sql': 'CHAR(512)', 'type': 'string', 'unique': False}, ...})"
p133
sg77
S'save_dbt'
p134
sa(dp135
g68
S'C:\\Users\\Matthew\\Desktop\\web2py\\gluon\\dal\\adapters\\base.py'
p136
sg70
(dp137
sg72
I148
sg73
(dp138
sg75
S"(self=<gluon.dal.adapters.sqlite.SQLiteAdapter object>, filename=r'C:\\Users\\Matthew\\Desktop\\web2py\\applications\\Pro...ses\\c8b669d15150d7109e5f7ab36744a5b7_makeup.table', mode='w', lock=True)"
p139
sg77
S'file_open'
p140
sasS'pyver'
p141
S'Python 2.7.6: C:\\Users\\Matthew\\Desktop\\web2py\\web2py.exe (prefix: )'
p142
sS'session'
p143
g63
(S's\x1a\x00\x00\x00<div><table></table></div>'
tRp144
sS'etype'
p145
S"<type 'exceptions.IOError'>"
p146
sS'date'
p147
S'Sun Mar 15 14:46:19 2015'
p148
sS'response'
p149
g63
(S's\xc0M\x00\x00<div><table><tr><td style="font-weight:bold;vertical-align:top;">body</td><td style="vertical-align:top;">:</td><td><div>&lt;cStringIO.StringO object at 0x08F58500&gt;</div></td></tr><tr><td style="font-weight:bold;vertical-align:top;">cookies</td><td style="vertical-align:top;">:</td><td><div><table><tr><td style="font-weight:bold;vertical-align:top;">session_id_project</td><td style="vertical-align:top;">:</td><td><div>127.0.0.1-31a56e09-4833-4a27-bd9f-bdd225c877f5<table><tr><td style="font-weight:bold;vertical-align:top;">comment</td><td style="vertical-align:top;">:</td><td><div></div></td></tr><tr><td style="font-weight:bold;vertical-align:top;">domain</td><td style="vertical-align:top;">:</td><td><div></div></td></tr><tr><td style="font-weight:bold;vertical-align:top;">expires</td><td style="vertical-align:top;">:</td><td><div></div></td></tr><tr><td style="font-weight:bold;vertical-align:top;">httponly</td><td style="vertical-align:top;">:</td><td><div></div></td></tr><tr><td style="font-weight:bold;vertical-align:top;">max-age</td><td style="vertical-align:top;">:</td><td><div></div></td></tr><tr><td style="font-weight:bold;vertical-align:top;">path</td><td style="vertical-align:top;">:</td><td><div>/</div></td></tr><tr><td style="font-weight:bold;vertical-align:top;">secure</td><td style="vertical-align:top;">:</td><td><div></div></td></tr><tr><td style="font-weight:bold;vertical-align:top;">version</td><td style="vertical-align:top;">:</td><td><div></div></td></tr></table></div></td></tr></table></div></td></tr><tr><td style="font-weight:bold;vertical-align:top;">delimiters</td><td style="vertical-align:top;">:</td><td><div><table><tr><td><div>{{</div></td></tr><tr><td><div>}}</div></td></tr></table></div></td></tr><tr><td style="font-weight:bold;vertical-align:top;">files</td><td style="vertical-align:top;">:</td><td><div><table></table></div></td></tr><tr><td style="font-weight:bold;vertical-align:top;">flash</td><td style="vertical-align:top;">:</td><td><div></div></td></tr><tr><td style="font-weight:bold;vertical-align:top;">form_label_separator</td><td style="vertical-align:top;">:</td><td><div>: </div></td></tr><tr><td style="font-weight:bold;vertical-align:top;">formstyle</td><td style="vertical-align:top;">:</td><td><div>table3cols</div></td></tr><tr><td style="font-weight:bold;vertical-align:top;">generic_patterns</td><td style="vertical-align:top;">:</td><td><div><table><tr><td><div>*</div></td></tr></table></div></td></tr><tr><td style="font-weight:bold;vertical-align:top;">google_analytics_id</td><td style="vertical-align:top;">:</td><td><div>None</div></td></tr><tr><td style="font-weight:bold;vertical-align:top;">headers</td><td style="vertical-align:top;">:</td><td><div><table><tr><td style="font-weight:bold;vertical-align:top;">X-Powered-By</td><td style="vertical-align:top;">:</td><td><div>web2py</div></td></tr></table></div></td></tr><tr><td style="font-weight:bold;vertical-align:top;">logo</td><td style="vertical-align:top;">:</td><td><div><a class="brand" href="index"><b>BeutFix</b>&trade;&nbsp;</a></div></td></tr><tr><td style="font-weight:bold;vertical-align:top;">menu</td><td style="vertical-align:top;">:</td><td><div><table><tr><td><div><table><tr><td><div>Home</div></td></tr><tr><td><div>False</div></td></tr><tr><td><div>/Project/default/index</div></td></tr><tr><td><div><table></table></div></td></tr></table></div></td></tr><tr><td><div><table><tr><td><div>Write a review</div></td></tr><tr><td><div>False</div></td></tr><tr><td><div>/Project/default/reviews</div></td></tr><tr><td><div><table></table></div></td></tr></table></div></td></tr><tr><td><div><table><tr><td><div>Forums</div></td></tr><tr><td><div>False</div></td></tr><tr><td><div>/Project/default/forums</div></td></tr><tr><td><div><table></table></div></td></tr></table></div></td></tr><tr><td><div><table><tr><td><div>Account</div></td></tr><tr><td><div>False</div></td></tr><tr><td><div>/Project/default/account</div></td></tr><tr><td><div><table></table></div></td></tr></table></div></td></tr><tr><td><div><table><tr><td><div><span class="highlighted">web2py</span></div></td></tr><tr><td><div>False</div></td></tr><tr><td><div>http://web2py.com</div></td></tr><tr><td><div><table><tr><td><div><table><tr><td><div>My Sites</div></td></tr><tr><td><div>False</div></td></tr><tr><td><div>/admin/default/site</div></td></tr></table></div></td></tr><tr><td><div><table><tr><td><div>This App</div></td></tr><tr><td><div>False</div></td></tr><tr><td><div>/admin/default/design/Project</div></td></tr><tr><td><div>[(&lt;lazyT &#x27;Controller&#x27;&gt;, False, &#x27;/admin/default/edit/Project/controllers/appadmin.py&#x27;), (&lt;lazyT &#x27;View&#x27;&gt;, False, &#x27;/admin/default/edit/Project/views/appadmin/hooks.html&#x27;), (&lt;lazyT &#x27;Layout&#x27;&gt;, False, &#x27;/admin/default/edit/Project/views/layout.html&#x27;), (&lt;lazyT &#x27;Stylesheet&#x27;&gt;, False, &#x27;/admin/default/edit/Project/static/css/web2py.css&#x27;), (&lt;lazyT &#x27;DB Model&#x27;&gt;, False, &#x27;/admin/default/edit/Project/models/db.py&#x27;), (&lt;lazyT &#x27;Menu Model&#x27;&gt;, False, &#x27;/admin/default/edit/Project/models/menu.py&#x27;), (&lt;lazyT &#x27;Database&#x27;&gt;, False, &#x27;/Project/appadmin/index&#x27;), (&lt;lazyT &#x27;Errors&#x27;&gt;, False, &#x27;/admin/default/errors/Project&#x27;), (&lt;lazyT &#x27;About&#x27;&gt;, False, &#x27;/admin/default/about/Project&#x27;)]</div></td></tr></table></div></td></tr><tr><td><div><table><tr><td><div>web2py.com</div></td></tr><tr><td><div>False</div></td></tr><tr><td><div>http://www.web2py.com</div></td></tr><tr><td><div>[(&lt;lazyT &#x27;Download&#x27;&gt;, False, &#x27;http://www.web2py.com/examples/default/download&#x27;), (&lt;lazyT &#x27;Support&#x27;&gt;, False, &#x27;http://www.web2py.com/examples/default/support&#x27;), (&lt;lazyT &#x27;Demo&#x27;&gt;, False, &#x27;http://web2py.com/demo_admin&#x27;), (&lt;lazyT &#x27;Quick Examples&#x27;&gt;, False, &#x27;http://web2py.com/examples/default/examples&#x27;), (&lt;lazyT &#x27;FAQ&#x27;&gt;, False, &#x27;http://web2py.com/AlterEgo&#x27;), (&lt;lazyT &#x27;Videos&#x27;&gt;, False, &#x27;http://www.web2py.com/examples/default/videos/&#x27;), (&lt;lazyT &#x27;Free Applications&#x27;&gt;, False, &#x27;http://web2py.com/appliances&#x27;), (&lt;lazyT &#x27;Plugins&#x27;&gt;, False, &#x27;http://web2py.com/plugins&#x27;), (&lt;lazyT &#x27;Layouts&#x27;&gt;, False, &#x27;http://web2py.com/layouts&#x27;), (&lt;lazyT &#x27;Recipes&#x27;&gt;, False, &#x27;http://web2pyslices.com/&#x27;), (&lt;lazyT &#x27;Semantic&#x27;&gt;, False, &#x27;http://web2py.com/semantic&#x27;)]</div></td></tr></table></div></td></tr><tr><td><div><table><tr><td><div>Documentation</div></td></tr><tr><td><div>False</div></td></tr><tr><td><div>http://www.web2py.com/book</div></td></tr><tr><td><div>[(&lt;lazyT &#x27;Preface&#x27;&gt;, False, &#x27;http://www.web2py.com/book/default/chapter/00&#x27;), (&lt;lazyT &#x27;Introduction&#x27;&gt;, False, &#x27;http://www.web2py.com/book/default/chapter/01&#x27;), (&lt;lazyT &#x27;Python&#x27;&gt;, False, &#x27;http://www.web2py.com/book/default/chapter/02&#x27;), (&lt;lazyT &#x27;Overview&#x27;&gt;, False, &#x27;http://www.web2py.com/book/default/chapter/03&#x27;), (&lt;lazyT &#x27;The Core&#x27;&gt;, False, &#x27;http://www.web2py.com/book/default/chapter/04&#x27;), (&lt;lazyT &#x27;The Views&#x27;&gt;, False, &#x27;http://www.web2py.com/book/default/chapter/05&#x27;), (&lt;lazyT &#x27;Database&#x27;&gt;, False, &#x27;http://www.web2py.com/book/default/chapter/06&#x27;), (&lt;lazyT &#x27;Forms and Validators&#x27;&gt;, False, &#x27;http://www.web2py.com/book/default/chapter/07&#x27;), (&lt;lazyT &#x27;Email and SMS&#x27;&gt;, False, &#x27;http://www.web2py.com/book/default/chapter/08&#x27;), (&lt;lazyT &#x27;Access Control&#x27;&gt;, False, &#x27;http://www.web2py.com/book/default/chapter/09&#x27;), (&lt;lazyT &#x27;Services&#x27;&gt;, False, &#x27;http://www.web2py.com/book/default/chapter/10&#x27;), (&lt;lazyT &#x27;Ajax Recipes&#x27;&gt;, False, &#x27;http://www.web2py.com/book/default/chapter/11&#x27;), (&lt;lazyT &#x27;Components and Plugins&#x27;&gt;, False, &#x27;http://www.web2py.com/book/default/chapter/12&#x27;), (&lt;lazyT &#x27;Deployment Recipes&#x27;&gt;, False, &#x27;http://www.web2py.com/book/default/chapter/13&#x27;), (&lt;lazyT &#x27;Other Recipes&#x27;&gt;, False, &#x27;http://www.web2py.com/book/default/chapter/14&#x27;), (&lt;lazyT &#x27;Buy this book&#x27;&gt;, False, &#x27;http://stores.lulu.com/web2py&#x27;)]</div></td></tr></table></div></td></tr><tr><td><div><table><tr><td><div>Community</div></td></tr><tr><td><div>False</div></td></tr><tr><td><div>None</div></td></tr><tr><td><div>[(&lt;lazyT &#x27;Groups&#x27;&gt;, False, &#x27;http://www.web2py.com/examples/default/usergroups&#x27;), (&lt;lazyT &#x27;Twitter&#x27;&gt;, False, &#x27;http://twitter.com/web2py&#x27;), (&lt;lazyT &#x27;Live Chat&#x27;&gt;, False, &#x27;http://webchat.freenode.net/?channels=web2py&#x27;)]</div></td></tr></table></div></td></tr><tr><td><div><table><tr><td><div>Plugins</div></td></tr><tr><td><div>False</div></td></tr><tr><td><div>None</div></td></tr><tr><td><div>[(&#x27;plugin_wiki&#x27;, False, &#x27;http://web2py.com/examples/default/download&#x27;), (&lt;lazyT &#x27;Other Plugins&#x27;&gt;, False, &#x27;http://web2py.com/plugins&#x27;), (&lt;lazyT &#x27;Layout Plugins&#x27;&gt;, False, &#x27;http://web2py.com/layouts&#x27;)]</div></td></tr></table></div></td></tr></table></div></td></tr></table></div></td></tr></table></div></td></tr><tr><td style="font-weight:bold;vertical-align:top;">menu2</td><td style="vertical-align:top;">:</td><td><div><table><tr><td><div><table><tr><td><div>Makeup</div></td></tr><tr><td><div>False</div></td></tr><tr><td><div>/Project/default/index/makeup</div></td></tr><tr><td><div><table><tr><td><div><table><tr><td><div>Face Makeup</div></td></tr><tr><td><div>False</div></td></tr><tr><td><div>/Project/default/index/makeup/FaceMakeup</div></td></tr></table></div></td></tr><tr><td><div><table><tr><td><div>Body Makeup</div></td></tr><tr><td><div>False</div></td></tr><tr><td><div>/Project/default/index/makeup/BodyMakeup</div></td></tr></table></div></td></tr><tr><td><div><table><tr><td><div>Eye Makeup</div></td></tr><tr><td><div>False</div></td></tr><tr><td><div>/Project/default/index/makeup/EyeMakeup</div></td></tr></table></div></td></tr><tr><td><div><table><tr><td><div>Lips</div></td></tr><tr><td><div>False</div></td></tr><tr><td><div>/Project/default/index/makeup/Lips</div></td></tr></table></div></td></tr><tr><td><div><table><tr><td><div>Nails</div></td></tr><tr><td><div>False</div></td></tr><tr><td><div>/Project/default/index/makeup/Nails</div></td></tr></table></div></td></tr></table></div></td></tr></table></div></td></tr><tr><td><div><table><tr><td><div>Skin Care</div></td></tr><tr><td><div>False</div></td></tr><tr><td><div>/Project/default/index/skinCare</div></td></tr><tr><td><div><table><tr><td><div><table><tr><td><div>Wash</div></td></tr><tr><td><div>False</div></td></tr><tr><td><div>/Project/default/index/skinCare/Wash</div></td></tr></table></div></td></tr><tr><td><div><table><tr><td><div>Moisturizers</div></td></tr><tr><td><div>False</div></td></tr><tr><td><div>/Project/default/index/skinCare/Moisturizers</div></td></tr></table></div></td></tr><tr><td><div><table><tr><td><div>Treatments</div></td></tr><tr><td><div>False</div></td></tr><tr><td><div>/Project/default/index/skinCare/Treatments</div></td></tr></table></div></td></tr><tr><td><div><table><tr><td><div>Sunscreens</div></td></tr><tr><td><div>False</div></td></tr><tr><td><div>/Project/default/index/skinCareSunscreens</div></td></tr></table></div></td></tr><tr><td><div><table><tr><td><div>Tanners</div></td></tr><tr><td><div>False</div></td></tr><tr><td><div>/Project/default/index/skinCare/Tanners</div></td></tr></table></div></td></tr><tr><td><div><table><tr><td><div>Whiteners</div></td></tr><tr><td><div>False</div></td></tr><tr><td><div>/Project/default/index/skinCare/Whiteners</div></td></tr></table></div></td></tr><tr><td><div><table><tr><td><div>Other</div></td></tr><tr><td><div>False</div></td></tr><tr><td><div>/Project/default/index/skinCare/Other</div></td></tr></table></div></td></tr></table></div></td></tr></table></div></td></tr><tr><td><div><table><tr><td><div>Bath and Body</div></td></tr><tr><td><div>False</div></td></tr><tr><td><div>/Project/default/index/bathBody</div></td></tr><tr><td><div><table><tr><td><div><table><tr><td><div>Lotions and Creams</div></td></tr><tr><td><div>False</div></td></tr><tr><td><div>/Project/default/index/bathBody/LotionCreams</div></td></tr></table></div></td></tr><tr><td><div><table><tr><td><div>Bath and Shower</div></td></tr><tr><td><div>False</div></td></tr><tr><td><div>/Project/default/index/bathBody/BathShower</div></td></tr></table></div></td></tr><tr><td><div><table><tr><td><div>Sun</div></td></tr><tr><td><div>False</div></td></tr><tr><td><div>/Project/default/index/bathBody/Sun</div></td></tr></table></div></td></tr><tr><td><div><table><tr><td><div>Other</div></td></tr><tr><td><div>False</div></td></tr><tr><td><div>/Project/default/index/bathBody/Other</div></td></tr></table></div></td></tr></table></div></td></tr></table></div></td></tr><tr><td><div><table><tr><td><div>Hair</div></td></tr><tr><td><div>False</div></td></tr><tr><td><div>/Project/default/index/hair</div></td></tr><tr><td><div><table><tr><td><div><table><tr><td><div>Styling products &amp; tools</div></td></tr><tr><td><div>False</div></td></tr><tr><td><div>/Project/default/index/hair/StylingTools</div></td></tr></table></div></td></tr><tr><td><div><table><tr><td><div>Treatment</div></td></tr><tr><td><div>False</div></td></tr><tr><td><div>/Project/default/index/hair/Treatment</div></td></tr></table></div></td></tr><tr><td><div><table><tr><td><div>Shampoo &amp; Conditioner</div></td></tr><tr><td><div>False</div></td></tr><tr><td><div>/Project/default/index/hair/ShampooConditioner</div></td></tr></table></div></td></tr><tr><td><div><table><tr><td><div>Other</div></td></tr><tr><td><div>False</div></td></tr><tr><td><div>/Project/default/index/hair/Other</div></td></tr></table></div></td></tr></table></div></td></tr></table></div></td></tr><tr><td><div><table><tr><td><div>Tools and Brushes</div></td></tr><tr><td><div>False</div></td></tr><tr><td><div>/Project/default/index/toolsBrushes</div></td></tr><tr><td><div><table><tr><td><div><table><tr><td><div>Hair Styling Tools</div></td></tr><tr><td><div>False</div></td></tr><tr><td><div>/Project/default/index/toolsBrushes/HairStyleTools</div></td></tr></table></div></td></tr><tr><td><div><table><tr><td><div>Makeup brushes &amp; Applicators</div></td></tr><tr><td><div>False</div></td></tr><tr><td><div>/Project/default/index/toolsBrushes/MakeupBrushesApplicators</div></td></tr></table></div></td></tr><tr><td><div><table><tr><td><div>Other</div></td></tr><tr><td><div>False</div></td></tr><tr><td><div>/Project/default/index/toolsBrushes/Other</div></td></tr></table></div></td></tr></table></div></td></tr></table></div></td></tr><tr><td><div><table><tr><td><div>Men</div></td></tr><tr><td><div>False</div></td></tr><tr><td><div>/Project/default/index/men</div></td></tr><tr><td><div><table><tr><td><div><table><tr><td><div>Fragrance</div></td></tr><tr><td><div>False</div></td></tr><tr><td><div>/Project/default/index/men/Fragrance</div></td></tr></table></div></td></tr><tr><td><div><table><tr><td><div>Skin Care</div></td></tr><tr><td><div>False</div></td></tr><tr><td><div>/Project/default/index/men/SkinCare</div></td></tr></table></div></td></tr><tr><td><div><table><tr><td><div>Shaving</div></td></tr><tr><td><div>False</div></td></tr><tr><td><div>/Project/default/index/men/Shaving</div></td></tr></table></div></td></tr><tr><td><div><table><tr><td><div>Hair</div></td></tr><tr><td><div>False</div></td></tr><tr><td><div>/Project/default/index/men/Hair</div></td></tr></table></div></td></tr><tr><td><div><table><tr><td><div>Other</div></td></tr><tr><td><div>False</div></td></tr><tr><td><div>/Project/default/index/men/Other</div></td></tr></table></div></td></tr></table></div></td></tr></table></div></td></tr></table></div></td></tr><tr><td style="font-weight:bold;vertical-align:top;">meta</td><td style="vertical-align:top;">:</td><td><div><table><tr><td style="font-weight:bold;vertical-align:top;">author</td><td style="vertical-align:top;">:</td><td><div>Your Name &lt;you@example.com&gt;</div></td></tr><tr><td style="font-weight:bold;vertical-align:top;">generator</td><td style="vertical-align:top;">:</td><td><div>Web2py Web Framework</div></td></tr><tr><td style="font-weight:bold;vertical-align:top;">keywords</td><td style="vertical-align:top;">:</td><td><div>web2py, python, framework</div></td></tr></table></div></td></tr><tr><td style="font-weight:bold;vertical-align:top;">models_to_run</td><td style="vertical-align:top;">:</td><td><div><table><tr><td><div>^\\w+\\.py$</div></td></tr><tr><td><div>^appadmin/\\w+\\.py$</div></td></tr><tr><td><div>^appadmin/hooks/\\w+\\.py$</div></td></tr></table></div></td></tr><tr><td style="font-weight:bold;vertical-align:top;">postprocessing</td><td style="vertical-align:top;">:</td><td><div><table></table></div></td></tr><tr><td style="font-weight:bold;vertical-align:top;">session_client</td><td style="vertical-align:top;">:</td><td><div>127.0.0.1</div></td></tr><tr><td style="font-weight:bold;vertical-align:top;">session_cookie_compression_level</td><td style="vertical-align:top;">:</td><td><div>None</div></td></tr><tr><td style="font-weight:bold;vertical-align:top;">session_cookie_expires</td><td style="vertical-align:top;">:</td><td><div>None</div></td></tr><tr><td style="font-weight:bold;vertical-align:top;">session_cookie_key</td><td style="vertical-align:top;">:</td><td><div>None</div></td></tr><tr><td style="font-weight:bold;vertical-align:top;">session_data_name</td><td style="vertical-align:top;">:</td><td><div>session_data_project</div></td></tr><tr><td style="font-weight:bold;vertical-align:top;">session_file</td><td style="vertical-align:top;">:</td><td><div>None</div></td></tr><tr><td style="font-weight:bold;vertical-align:top;">session_filename</td><td style="vertical-align:top;">:</td><td><div>C:\\Users\\Matthew\\Desktop\\web2py\\applications\\Project\\sessions\\127.0.0.1-31a56e09-4833-4a27-bd9f-bdd225c877f5</div></td></tr><tr><td style="font-weight:bold;vertical-align:top;">session_hash</td><td style="vertical-align:top;">:</td><td><div>c0762cbf4baf7f9af97c051e7fcb8083</div></td></tr><tr><td style="font-weight:bold;vertical-align:top;">session_id</td><td style="vertical-align:top;">:</td><td><div>127.0.0.1-31a56e09-4833-4a27-bd9f-bdd225c877f5</div></td></tr><tr><td style="font-weight:bold;vertical-align:top;">session_id_name</td><td style="vertical-align:top;">:</td><td><div>session_id_project</div></td></tr><tr><td style="font-weight:bold;vertical-align:top;">session_masterapp</td><td style="vertical-align:top;">:</td><td><div>Project</div></td></tr><tr><td style="font-weight:bold;vertical-align:top;">session_new</td><td style="vertical-align:top;">:</td><td><div>True</div></td></tr><tr><td style="font-weight:bold;vertical-align:top;">session_storage_type</td><td style="vertical-align:top;">:</td><td><div>file</div></td></tr><tr><td style="font-weight:bold;vertical-align:top;">status</td><td style="vertical-align:top;">:</td><td><div>200</div></td></tr><tr><td style="font-weight:bold;vertical-align:top;">subtitle</td><td style="vertical-align:top;">:</td><td><div></div></td></tr><tr><td style="font-weight:bold;vertical-align:top;">title</td><td style="vertical-align:top;">:</td><td><div></div></td></tr><tr><td style="font-weight:bold;vertical-align:top;">view</td><td style="vertical-align:top;">:</td><td><div>appadmin/hooks.html</div></td></tr></table></div>'
tRp150
sS'locals'
p151
(dp152
S'lock'
p153
S'True'
p154
sS'self'
p155
S'<gluon.dal.adapters.sqlite.SQLiteAdapter object>'
p156
sS'mode'
p157
S"'w'"
p158
sg36
S"r'C:\\Users\\Matthew\\Desktop\\web2py\\applications\\Pro...ses\\c8b669d15150d7109e5f7ab36744a5b7_makeup.table'"
p159
sssS'traceback'
p160
S'Traceback (most recent call last):\n  File "gluon/restricted.py", line 224, in restricted\n  File "C:\\Users\\Matthew\\Desktop\\web2py\\applications\\Project\\models\\tables.py", line 47, in <module>\n    Field(\'date_posted\', \'datetime\', default = datetime.utcnow(), writable = False),\n  File "gluon/dal/base.py", line 787, in define_table\n  File "gluon/dal/base.py", line 824, in lazy_define_table\n  File "gluon/dal/adapters/base.py", line 487, in create_table\n  File "gluon/dal/adapters/base.py", line 612, in migrate_table\n  File "gluon/dal/adapters/base.py", line 620, in save_dbt\n  File "gluon/dal/adapters/base.py", line 148, in file_open\nIOError: [Errno 22] invalid mode (\'w\') or filename: \'C:\\\\Users\\\\Matthew\\\\Desktop\\\\web2py\\\\applications\\\\Project\\\\databases\\\\c8b669d15150d7109e5f7ab36744a5b7_makeup.table\'\n'
p161
s.